
MicromouseFirmware.elf:     file format elf32-littlearm

Sections:
Idx Name          Size      VMA       LMA       File off  Algn
  0 .isr_vector   00000188  08000000  08000000  00010000  2**0
                  CONTENTS, ALLOC, LOAD, READONLY, DATA
  1 .text         000039ec  08000190  08000190  00010190  2**4
                  CONTENTS, ALLOC, LOAD, READONLY, CODE
  2 .rodata       00000070  08003b7c  08003b7c  00013b7c  2**0
                  CONTENTS, ALLOC, LOAD, READONLY, DATA
  3 .ARM.extab    00000000  08003bec  08003bec  0002006c  2**0
                  CONTENTS
  4 .ARM          00000008  08003bec  08003bec  00013bec  2**2
                  CONTENTS, ALLOC, LOAD, READONLY, DATA
  5 .preinit_array 00000000  08003bf4  08003bf4  0002006c  2**0
                  CONTENTS, ALLOC, LOAD, DATA
  6 .init_array   00000004  08003bf4  08003bf4  00013bf4  2**2
                  CONTENTS, ALLOC, LOAD, DATA
  7 .fini_array   00000004  08003bf8  08003bf8  00013bf8  2**2
                  CONTENTS, ALLOC, LOAD, DATA
  8 .data         0000006c  20000000  08003bfc  00020000  2**2
                  CONTENTS, ALLOC, LOAD, DATA
  9 .ccmram       00000000  10000000  10000000  0002006c  2**0
                  CONTENTS
 10 .bss          00000478  2000006c  2000006c  0002006c  2**2
                  ALLOC
 11 ._user_heap_stack 00000604  200004e4  200004e4  0002006c  2**0
                  ALLOC
 12 .ARM.attributes 00000030  00000000  00000000  0002006c  2**0
                  CONTENTS, READONLY
 13 .comment      00000043  00000000  00000000  0002009c  2**0
                  CONTENTS, READONLY
 14 .debug_frame  00000868  00000000  00000000  000200e0  2**2
                  CONTENTS, READONLY, DEBUGGING, OCTETS

Disassembly of section .text:

08000190 <__do_global_dtors_aux>:
 8000190:	b510      	push	{r4, lr}
 8000192:	4c05      	ldr	r4, [pc, #20]	; (80001a8 <__do_global_dtors_aux+0x18>)
 8000194:	7823      	ldrb	r3, [r4, #0]
 8000196:	b933      	cbnz	r3, 80001a6 <__do_global_dtors_aux+0x16>
 8000198:	4b04      	ldr	r3, [pc, #16]	; (80001ac <__do_global_dtors_aux+0x1c>)
 800019a:	b113      	cbz	r3, 80001a2 <__do_global_dtors_aux+0x12>
 800019c:	4804      	ldr	r0, [pc, #16]	; (80001b0 <__do_global_dtors_aux+0x20>)
 800019e:	f3af 8000 	nop.w
 80001a2:	2301      	movs	r3, #1
 80001a4:	7023      	strb	r3, [r4, #0]
 80001a6:	bd10      	pop	{r4, pc}
 80001a8:	2000006c 	.word	0x2000006c
 80001ac:	00000000 	.word	0x00000000
 80001b0:	08003b64 	.word	0x08003b64

080001b4 <frame_dummy>:
 80001b4:	b508      	push	{r3, lr}
 80001b6:	4b03      	ldr	r3, [pc, #12]	; (80001c4 <frame_dummy+0x10>)
 80001b8:	b11b      	cbz	r3, 80001c2 <frame_dummy+0xe>
 80001ba:	4903      	ldr	r1, [pc, #12]	; (80001c8 <frame_dummy+0x14>)
 80001bc:	4803      	ldr	r0, [pc, #12]	; (80001cc <frame_dummy+0x18>)
 80001be:	f3af 8000 	nop.w
 80001c2:	bd08      	pop	{r3, pc}
 80001c4:	00000000 	.word	0x00000000
 80001c8:	20000070 	.word	0x20000070
 80001cc:	08003b64 	.word	0x08003b64

080001d0 <memchr>:
 80001d0:	f001 01ff 	and.w	r1, r1, #255	; 0xff
 80001d4:	2a10      	cmp	r2, #16
 80001d6:	db2b      	blt.n	8000230 <memchr+0x60>
 80001d8:	f010 0f07 	tst.w	r0, #7
 80001dc:	d008      	beq.n	80001f0 <memchr+0x20>
 80001de:	f810 3b01 	ldrb.w	r3, [r0], #1
 80001e2:	3a01      	subs	r2, #1
 80001e4:	428b      	cmp	r3, r1
 80001e6:	d02d      	beq.n	8000244 <memchr+0x74>
 80001e8:	f010 0f07 	tst.w	r0, #7
 80001ec:	b342      	cbz	r2, 8000240 <memchr+0x70>
 80001ee:	d1f6      	bne.n	80001de <memchr+0xe>
 80001f0:	b4f0      	push	{r4, r5, r6, r7}
 80001f2:	ea41 2101 	orr.w	r1, r1, r1, lsl #8
 80001f6:	ea41 4101 	orr.w	r1, r1, r1, lsl #16
 80001fa:	f022 0407 	bic.w	r4, r2, #7
 80001fe:	f07f 0700 	mvns.w	r7, #0
 8000202:	2300      	movs	r3, #0
 8000204:	e8f0 5602 	ldrd	r5, r6, [r0], #8
 8000208:	3c08      	subs	r4, #8
 800020a:	ea85 0501 	eor.w	r5, r5, r1
 800020e:	ea86 0601 	eor.w	r6, r6, r1
 8000212:	fa85 f547 	uadd8	r5, r5, r7
 8000216:	faa3 f587 	sel	r5, r3, r7
 800021a:	fa86 f647 	uadd8	r6, r6, r7
 800021e:	faa5 f687 	sel	r6, r5, r7
 8000222:	b98e      	cbnz	r6, 8000248 <memchr+0x78>
 8000224:	d1ee      	bne.n	8000204 <memchr+0x34>
 8000226:	bcf0      	pop	{r4, r5, r6, r7}
 8000228:	f001 01ff 	and.w	r1, r1, #255	; 0xff
 800022c:	f002 0207 	and.w	r2, r2, #7
 8000230:	b132      	cbz	r2, 8000240 <memchr+0x70>
 8000232:	f810 3b01 	ldrb.w	r3, [r0], #1
 8000236:	3a01      	subs	r2, #1
 8000238:	ea83 0301 	eor.w	r3, r3, r1
 800023c:	b113      	cbz	r3, 8000244 <memchr+0x74>
 800023e:	d1f8      	bne.n	8000232 <memchr+0x62>
 8000240:	2000      	movs	r0, #0
 8000242:	4770      	bx	lr
 8000244:	3801      	subs	r0, #1
 8000246:	4770      	bx	lr
 8000248:	2d00      	cmp	r5, #0
 800024a:	bf06      	itte	eq
 800024c:	4635      	moveq	r5, r6
 800024e:	3803      	subeq	r0, #3
 8000250:	3807      	subne	r0, #7
 8000252:	f015 0f01 	tst.w	r5, #1
 8000256:	d107      	bne.n	8000268 <memchr+0x98>
 8000258:	3001      	adds	r0, #1
 800025a:	f415 7f80 	tst.w	r5, #256	; 0x100
 800025e:	bf02      	ittt	eq
 8000260:	3001      	addeq	r0, #1
 8000262:	f415 3fc0 	tsteq.w	r5, #98304	; 0x18000
 8000266:	3001      	addeq	r0, #1
 8000268:	bcf0      	pop	{r4, r5, r6, r7}
 800026a:	3801      	subs	r0, #1
 800026c:	4770      	bx	lr
 800026e:	bf00      	nop

08000270 <__aeabi_uldivmod>:
 8000270:	b953      	cbnz	r3, 8000288 <__aeabi_uldivmod+0x18>
 8000272:	b94a      	cbnz	r2, 8000288 <__aeabi_uldivmod+0x18>
 8000274:	2900      	cmp	r1, #0
 8000276:	bf08      	it	eq
 8000278:	2800      	cmpeq	r0, #0
 800027a:	bf1c      	itt	ne
 800027c:	f04f 31ff 	movne.w	r1, #4294967295
 8000280:	f04f 30ff 	movne.w	r0, #4294967295
 8000284:	f000 b970 	b.w	8000568 <__aeabi_idiv0>
 8000288:	f1ad 0c08 	sub.w	ip, sp, #8
 800028c:	e96d ce04 	strd	ip, lr, [sp, #-16]!
 8000290:	f000 f806 	bl	80002a0 <__udivmoddi4>
 8000294:	f8dd e004 	ldr.w	lr, [sp, #4]
 8000298:	e9dd 2302 	ldrd	r2, r3, [sp, #8]
 800029c:	b004      	add	sp, #16
 800029e:	4770      	bx	lr

080002a0 <__udivmoddi4>:
 80002a0:	e92d 47f0 	stmdb	sp!, {r4, r5, r6, r7, r8, r9, sl, lr}
 80002a4:	9e08      	ldr	r6, [sp, #32]
 80002a6:	460d      	mov	r5, r1
 80002a8:	4604      	mov	r4, r0
 80002aa:	460f      	mov	r7, r1
 80002ac:	2b00      	cmp	r3, #0
 80002ae:	d14a      	bne.n	8000346 <__udivmoddi4+0xa6>
 80002b0:	428a      	cmp	r2, r1
 80002b2:	4694      	mov	ip, r2
 80002b4:	d965      	bls.n	8000382 <__udivmoddi4+0xe2>
 80002b6:	fab2 f382 	clz	r3, r2
 80002ba:	b143      	cbz	r3, 80002ce <__udivmoddi4+0x2e>
 80002bc:	fa02 fc03 	lsl.w	ip, r2, r3
 80002c0:	f1c3 0220 	rsb	r2, r3, #32
 80002c4:	409f      	lsls	r7, r3
 80002c6:	fa20 f202 	lsr.w	r2, r0, r2
 80002ca:	4317      	orrs	r7, r2
 80002cc:	409c      	lsls	r4, r3
 80002ce:	ea4f 4e1c 	mov.w	lr, ip, lsr #16
 80002d2:	fa1f f58c 	uxth.w	r5, ip
 80002d6:	fbb7 f1fe 	udiv	r1, r7, lr
 80002da:	0c22      	lsrs	r2, r4, #16
 80002dc:	fb0e 7711 	mls	r7, lr, r1, r7
 80002e0:	ea42 4207 	orr.w	r2, r2, r7, lsl #16
 80002e4:	fb01 f005 	mul.w	r0, r1, r5
 80002e8:	4290      	cmp	r0, r2
 80002ea:	d90a      	bls.n	8000302 <__udivmoddi4+0x62>
 80002ec:	eb1c 0202 	adds.w	r2, ip, r2
 80002f0:	f101 37ff 	add.w	r7, r1, #4294967295
 80002f4:	f080 811c 	bcs.w	8000530 <__udivmoddi4+0x290>
 80002f8:	4290      	cmp	r0, r2
 80002fa:	f240 8119 	bls.w	8000530 <__udivmoddi4+0x290>
 80002fe:	3902      	subs	r1, #2
 8000300:	4462      	add	r2, ip
 8000302:	1a12      	subs	r2, r2, r0
 8000304:	b2a4      	uxth	r4, r4
 8000306:	fbb2 f0fe 	udiv	r0, r2, lr
 800030a:	fb0e 2210 	mls	r2, lr, r0, r2
 800030e:	ea44 4402 	orr.w	r4, r4, r2, lsl #16
 8000312:	fb00 f505 	mul.w	r5, r0, r5
 8000316:	42a5      	cmp	r5, r4
 8000318:	d90a      	bls.n	8000330 <__udivmoddi4+0x90>
 800031a:	eb1c 0404 	adds.w	r4, ip, r4
 800031e:	f100 32ff 	add.w	r2, r0, #4294967295
 8000322:	f080 8107 	bcs.w	8000534 <__udivmoddi4+0x294>
 8000326:	42a5      	cmp	r5, r4
 8000328:	f240 8104 	bls.w	8000534 <__udivmoddi4+0x294>
 800032c:	4464      	add	r4, ip
 800032e:	3802      	subs	r0, #2
 8000330:	ea40 4001 	orr.w	r0, r0, r1, lsl #16
 8000334:	1b64      	subs	r4, r4, r5
 8000336:	2100      	movs	r1, #0
 8000338:	b11e      	cbz	r6, 8000342 <__udivmoddi4+0xa2>
 800033a:	40dc      	lsrs	r4, r3
 800033c:	2300      	movs	r3, #0
 800033e:	e9c6 4300 	strd	r4, r3, [r6]
 8000342:	e8bd 87f0 	ldmia.w	sp!, {r4, r5, r6, r7, r8, r9, sl, pc}
 8000346:	428b      	cmp	r3, r1
 8000348:	d908      	bls.n	800035c <__udivmoddi4+0xbc>
 800034a:	2e00      	cmp	r6, #0
 800034c:	f000 80ed 	beq.w	800052a <__udivmoddi4+0x28a>
 8000350:	2100      	movs	r1, #0
 8000352:	e9c6 0500 	strd	r0, r5, [r6]
 8000356:	4608      	mov	r0, r1
 8000358:	e8bd 87f0 	ldmia.w	sp!, {r4, r5, r6, r7, r8, r9, sl, pc}
 800035c:	fab3 f183 	clz	r1, r3
 8000360:	2900      	cmp	r1, #0
 8000362:	d149      	bne.n	80003f8 <__udivmoddi4+0x158>
 8000364:	42ab      	cmp	r3, r5
 8000366:	d302      	bcc.n	800036e <__udivmoddi4+0xce>
 8000368:	4282      	cmp	r2, r0
 800036a:	f200 80f8 	bhi.w	800055e <__udivmoddi4+0x2be>
 800036e:	1a84      	subs	r4, r0, r2
 8000370:	eb65 0203 	sbc.w	r2, r5, r3
 8000374:	2001      	movs	r0, #1
 8000376:	4617      	mov	r7, r2
 8000378:	2e00      	cmp	r6, #0
 800037a:	d0e2      	beq.n	8000342 <__udivmoddi4+0xa2>
 800037c:	e9c6 4700 	strd	r4, r7, [r6]
 8000380:	e7df      	b.n	8000342 <__udivmoddi4+0xa2>
 8000382:	b902      	cbnz	r2, 8000386 <__udivmoddi4+0xe6>
 8000384:	deff      	udf	#255	; 0xff
 8000386:	fab2 f382 	clz	r3, r2
 800038a:	2b00      	cmp	r3, #0
 800038c:	f040 8090 	bne.w	80004b0 <__udivmoddi4+0x210>
 8000390:	1a8a      	subs	r2, r1, r2
 8000392:	ea4f 471c 	mov.w	r7, ip, lsr #16
 8000396:	fa1f fe8c 	uxth.w	lr, ip
 800039a:	2101      	movs	r1, #1
 800039c:	fbb2 f5f7 	udiv	r5, r2, r7
 80003a0:	fb07 2015 	mls	r0, r7, r5, r2
 80003a4:	0c22      	lsrs	r2, r4, #16
 80003a6:	ea42 4200 	orr.w	r2, r2, r0, lsl #16
 80003aa:	fb0e f005 	mul.w	r0, lr, r5
 80003ae:	4290      	cmp	r0, r2
 80003b0:	d908      	bls.n	80003c4 <__udivmoddi4+0x124>
 80003b2:	eb1c 0202 	adds.w	r2, ip, r2
 80003b6:	f105 38ff 	add.w	r8, r5, #4294967295
 80003ba:	d202      	bcs.n	80003c2 <__udivmoddi4+0x122>
 80003bc:	4290      	cmp	r0, r2
 80003be:	f200 80cb 	bhi.w	8000558 <__udivmoddi4+0x2b8>
 80003c2:	4645      	mov	r5, r8
 80003c4:	1a12      	subs	r2, r2, r0
 80003c6:	b2a4      	uxth	r4, r4
 80003c8:	fbb2 f0f7 	udiv	r0, r2, r7
 80003cc:	fb07 2210 	mls	r2, r7, r0, r2
 80003d0:	ea44 4402 	orr.w	r4, r4, r2, lsl #16
 80003d4:	fb0e fe00 	mul.w	lr, lr, r0
 80003d8:	45a6      	cmp	lr, r4
 80003da:	d908      	bls.n	80003ee <__udivmoddi4+0x14e>
 80003dc:	eb1c 0404 	adds.w	r4, ip, r4
 80003e0:	f100 32ff 	add.w	r2, r0, #4294967295
 80003e4:	d202      	bcs.n	80003ec <__udivmoddi4+0x14c>
 80003e6:	45a6      	cmp	lr, r4
 80003e8:	f200 80bb 	bhi.w	8000562 <__udivmoddi4+0x2c2>
 80003ec:	4610      	mov	r0, r2
 80003ee:	eba4 040e 	sub.w	r4, r4, lr
 80003f2:	ea40 4005 	orr.w	r0, r0, r5, lsl #16
 80003f6:	e79f      	b.n	8000338 <__udivmoddi4+0x98>
 80003f8:	f1c1 0720 	rsb	r7, r1, #32
 80003fc:	408b      	lsls	r3, r1
 80003fe:	fa22 fc07 	lsr.w	ip, r2, r7
 8000402:	ea4c 0c03 	orr.w	ip, ip, r3
 8000406:	fa05 f401 	lsl.w	r4, r5, r1
 800040a:	fa20 f307 	lsr.w	r3, r0, r7
 800040e:	40fd      	lsrs	r5, r7
 8000410:	ea4f 491c 	mov.w	r9, ip, lsr #16
 8000414:	4323      	orrs	r3, r4
 8000416:	fbb5 f8f9 	udiv	r8, r5, r9
 800041a:	fa1f fe8c 	uxth.w	lr, ip
 800041e:	fb09 5518 	mls	r5, r9, r8, r5
 8000422:	0c1c      	lsrs	r4, r3, #16
 8000424:	ea44 4405 	orr.w	r4, r4, r5, lsl #16
 8000428:	fb08 f50e 	mul.w	r5, r8, lr
 800042c:	42a5      	cmp	r5, r4
 800042e:	fa02 f201 	lsl.w	r2, r2, r1
 8000432:	fa00 f001 	lsl.w	r0, r0, r1
 8000436:	d90b      	bls.n	8000450 <__udivmoddi4+0x1b0>
 8000438:	eb1c 0404 	adds.w	r4, ip, r4
 800043c:	f108 3aff 	add.w	sl, r8, #4294967295
 8000440:	f080 8088 	bcs.w	8000554 <__udivmoddi4+0x2b4>
 8000444:	42a5      	cmp	r5, r4
 8000446:	f240 8085 	bls.w	8000554 <__udivmoddi4+0x2b4>
 800044a:	f1a8 0802 	sub.w	r8, r8, #2
 800044e:	4464      	add	r4, ip
 8000450:	1b64      	subs	r4, r4, r5
 8000452:	b29d      	uxth	r5, r3
 8000454:	fbb4 f3f9 	udiv	r3, r4, r9
 8000458:	fb09 4413 	mls	r4, r9, r3, r4
 800045c:	ea45 4404 	orr.w	r4, r5, r4, lsl #16
 8000460:	fb03 fe0e 	mul.w	lr, r3, lr
 8000464:	45a6      	cmp	lr, r4
 8000466:	d908      	bls.n	800047a <__udivmoddi4+0x1da>
 8000468:	eb1c 0404 	adds.w	r4, ip, r4
 800046c:	f103 35ff 	add.w	r5, r3, #4294967295
 8000470:	d26c      	bcs.n	800054c <__udivmoddi4+0x2ac>
 8000472:	45a6      	cmp	lr, r4
 8000474:	d96a      	bls.n	800054c <__udivmoddi4+0x2ac>
 8000476:	3b02      	subs	r3, #2
 8000478:	4464      	add	r4, ip
 800047a:	ea43 4308 	orr.w	r3, r3, r8, lsl #16
 800047e:	fba3 9502 	umull	r9, r5, r3, r2
 8000482:	eba4 040e 	sub.w	r4, r4, lr
 8000486:	42ac      	cmp	r4, r5
 8000488:	46c8      	mov	r8, r9
 800048a:	46ae      	mov	lr, r5
 800048c:	d356      	bcc.n	800053c <__udivmoddi4+0x29c>
 800048e:	d053      	beq.n	8000538 <__udivmoddi4+0x298>
 8000490:	b156      	cbz	r6, 80004a8 <__udivmoddi4+0x208>
 8000492:	ebb0 0208 	subs.w	r2, r0, r8
 8000496:	eb64 040e 	sbc.w	r4, r4, lr
 800049a:	fa04 f707 	lsl.w	r7, r4, r7
 800049e:	40ca      	lsrs	r2, r1
 80004a0:	40cc      	lsrs	r4, r1
 80004a2:	4317      	orrs	r7, r2
 80004a4:	e9c6 7400 	strd	r7, r4, [r6]
 80004a8:	4618      	mov	r0, r3
 80004aa:	2100      	movs	r1, #0
 80004ac:	e8bd 87f0 	ldmia.w	sp!, {r4, r5, r6, r7, r8, r9, sl, pc}
 80004b0:	f1c3 0120 	rsb	r1, r3, #32
 80004b4:	fa02 fc03 	lsl.w	ip, r2, r3
 80004b8:	fa20 f201 	lsr.w	r2, r0, r1
 80004bc:	fa25 f101 	lsr.w	r1, r5, r1
 80004c0:	409d      	lsls	r5, r3
 80004c2:	432a      	orrs	r2, r5
 80004c4:	ea4f 471c 	mov.w	r7, ip, lsr #16
 80004c8:	fa1f fe8c 	uxth.w	lr, ip
 80004cc:	fbb1 f0f7 	udiv	r0, r1, r7
 80004d0:	fb07 1510 	mls	r5, r7, r0, r1
 80004d4:	0c11      	lsrs	r1, r2, #16
 80004d6:	ea41 4105 	orr.w	r1, r1, r5, lsl #16
 80004da:	fb00 f50e 	mul.w	r5, r0, lr
 80004de:	428d      	cmp	r5, r1
 80004e0:	fa04 f403 	lsl.w	r4, r4, r3
 80004e4:	d908      	bls.n	80004f8 <__udivmoddi4+0x258>
 80004e6:	eb1c 0101 	adds.w	r1, ip, r1
 80004ea:	f100 38ff 	add.w	r8, r0, #4294967295
 80004ee:	d22f      	bcs.n	8000550 <__udivmoddi4+0x2b0>
 80004f0:	428d      	cmp	r5, r1
 80004f2:	d92d      	bls.n	8000550 <__udivmoddi4+0x2b0>
 80004f4:	3802      	subs	r0, #2
 80004f6:	4461      	add	r1, ip
 80004f8:	1b49      	subs	r1, r1, r5
 80004fa:	b292      	uxth	r2, r2
 80004fc:	fbb1 f5f7 	udiv	r5, r1, r7
 8000500:	fb07 1115 	mls	r1, r7, r5, r1
 8000504:	ea42 4201 	orr.w	r2, r2, r1, lsl #16
 8000508:	fb05 f10e 	mul.w	r1, r5, lr
 800050c:	4291      	cmp	r1, r2
 800050e:	d908      	bls.n	8000522 <__udivmoddi4+0x282>
 8000510:	eb1c 0202 	adds.w	r2, ip, r2
 8000514:	f105 38ff 	add.w	r8, r5, #4294967295
 8000518:	d216      	bcs.n	8000548 <__udivmoddi4+0x2a8>
 800051a:	4291      	cmp	r1, r2
 800051c:	d914      	bls.n	8000548 <__udivmoddi4+0x2a8>
 800051e:	3d02      	subs	r5, #2
 8000520:	4462      	add	r2, ip
 8000522:	1a52      	subs	r2, r2, r1
 8000524:	ea45 4100 	orr.w	r1, r5, r0, lsl #16
 8000528:	e738      	b.n	800039c <__udivmoddi4+0xfc>
 800052a:	4631      	mov	r1, r6
 800052c:	4630      	mov	r0, r6
 800052e:	e708      	b.n	8000342 <__udivmoddi4+0xa2>
 8000530:	4639      	mov	r1, r7
 8000532:	e6e6      	b.n	8000302 <__udivmoddi4+0x62>
 8000534:	4610      	mov	r0, r2
 8000536:	e6fb      	b.n	8000330 <__udivmoddi4+0x90>
 8000538:	4548      	cmp	r0, r9
 800053a:	d2a9      	bcs.n	8000490 <__udivmoddi4+0x1f0>
 800053c:	ebb9 0802 	subs.w	r8, r9, r2
 8000540:	eb65 0e0c 	sbc.w	lr, r5, ip
 8000544:	3b01      	subs	r3, #1
 8000546:	e7a3      	b.n	8000490 <__udivmoddi4+0x1f0>
 8000548:	4645      	mov	r5, r8
 800054a:	e7ea      	b.n	8000522 <__udivmoddi4+0x282>
 800054c:	462b      	mov	r3, r5
 800054e:	e794      	b.n	800047a <__udivmoddi4+0x1da>
 8000550:	4640      	mov	r0, r8
 8000552:	e7d1      	b.n	80004f8 <__udivmoddi4+0x258>
 8000554:	46d0      	mov	r8, sl
 8000556:	e77b      	b.n	8000450 <__udivmoddi4+0x1b0>
 8000558:	3d02      	subs	r5, #2
 800055a:	4462      	add	r2, ip
 800055c:	e732      	b.n	80003c4 <__udivmoddi4+0x124>
 800055e:	4608      	mov	r0, r1
 8000560:	e70a      	b.n	8000378 <__udivmoddi4+0xd8>
 8000562:	4464      	add	r4, ip
 8000564:	3802      	subs	r0, #2
 8000566:	e742      	b.n	80003ee <__udivmoddi4+0x14e>

08000568 <__aeabi_idiv0>:
 8000568:	4770      	bx	lr
 800056a:	bf00      	nop

0800056c <_Z18SystemClock_Configv>:
 800056c:	b510      	push	{r4, lr}
 800056e:	2228      	movs	r2, #40	; 0x28
 8000570:	b094      	sub	sp, #80	; 0x50
 8000572:	2100      	movs	r1, #0
 8000574:	eb0d 0002 	add.w	r0, sp, r2
 8000578:	f002 fe18 	bl	80031ac <memset>
 800057c:	2214      	movs	r2, #20
 800057e:	2100      	movs	r1, #0
 8000580:	a803      	add	r0, sp, #12
 8000582:	f002 fe13 	bl	80031ac <memset>
 8000586:	2300      	movs	r3, #0
 8000588:	4a18      	ldr	r2, [pc, #96]	; (80005ec <_Z18SystemClock_Configv+0x80>)
 800058a:	9301      	str	r3, [sp, #4]
 800058c:	6c11      	ldr	r1, [r2, #64]	; 0x40
 800058e:	f041 5180 	orr.w	r1, r1, #268435456	; 0x10000000
 8000592:	6411      	str	r1, [r2, #64]	; 0x40
 8000594:	6c12      	ldr	r2, [r2, #64]	; 0x40
 8000596:	f002 5280 	and.w	r2, r2, #268435456	; 0x10000000
 800059a:	9201      	str	r2, [sp, #4]
 800059c:	9a01      	ldr	r2, [sp, #4]
 800059e:	4a14      	ldr	r2, [pc, #80]	; (80005f0 <_Z18SystemClock_Configv+0x84>)
 80005a0:	9302      	str	r3, [sp, #8]
 80005a2:	6811      	ldr	r1, [r2, #0]
 80005a4:	f441 4180 	orr.w	r1, r1, #16384	; 0x4000
 80005a8:	6011      	str	r1, [r2, #0]
 80005aa:	6812      	ldr	r2, [r2, #0]
 80005ac:	930e      	str	r3, [sp, #56]	; 0x38
 80005ae:	f402 4280 	and.w	r2, r2, #16384	; 0x4000
 80005b2:	9202      	str	r2, [sp, #8]
 80005b4:	9a02      	ldr	r2, [sp, #8]
 80005b6:	2401      	movs	r4, #1
 80005b8:	f44f 3280 	mov.w	r2, #65536	; 0x10000
 80005bc:	a808      	add	r0, sp, #32
 80005be:	e9cd 4208 	strd	r4, r2, [sp, #32]
 80005c2:	f001 faab 	bl	8001b1c <HAL_RCC_OscConfig>
 80005c6:	4601      	mov	r1, r0
 80005c8:	b108      	cbz	r0, 80005ce <_Z18SystemClock_Configv+0x62>
 80005ca:	b672      	cpsid	i
 80005cc:	e7fe      	b.n	80005cc <_Z18SystemClock_Configv+0x60>
 80005ce:	e9cd 0005 	strd	r0, r0, [sp, #20]
 80005d2:	230f      	movs	r3, #15
 80005d4:	9007      	str	r0, [sp, #28]
 80005d6:	a803      	add	r0, sp, #12
 80005d8:	e9cd 3403 	strd	r3, r4, [sp, #12]
 80005dc:	f001 fc78 	bl	8001ed0 <HAL_RCC_ClockConfig>
 80005e0:	b108      	cbz	r0, 80005e6 <_Z18SystemClock_Configv+0x7a>
 80005e2:	b672      	cpsid	i
 80005e4:	e7fe      	b.n	80005e4 <_Z18SystemClock_Configv+0x78>
 80005e6:	b014      	add	sp, #80	; 0x50
 80005e8:	bd10      	pop	{r4, pc}
 80005ea:	bf00      	nop
 80005ec:	40023800 	.word	0x40023800
 80005f0:	40007000 	.word	0x40007000

080005f4 <main>:
 80005f4:	b580      	push	{r7, lr}
 80005f6:	b098      	sub	sp, #96	; 0x60
 80005f8:	f000 fdba 	bl	8001170 <HAL_Init>
 80005fc:	f7ff ffb6 	bl	800056c <_Z18SystemClock_Configv>
 8000600:	f04f 4360 	mov.w	r3, #3758096384	; 0xe0000000
 8000604:	2601      	movs	r6, #1
 8000606:	2400      	movs	r4, #0
 8000608:	4dae      	ldr	r5, [pc, #696]	; (80008c4 <main+0x2d0>)
 800060a:	67de      	str	r6, [r3, #124]	; 0x7c
 800060c:	2214      	movs	r2, #20
 800060e:	2100      	movs	r1, #0
 8000610:	a80f      	add	r0, sp, #60	; 0x3c
 8000612:	f002 fdcb 	bl	80031ac <memset>
 8000616:	9401      	str	r4, [sp, #4]
 8000618:	6b2b      	ldr	r3, [r5, #48]	; 0x30
 800061a:	48ab      	ldr	r0, [pc, #684]	; (80008c8 <main+0x2d4>)
 800061c:	f043 0304 	orr.w	r3, r3, #4
 8000620:	632b      	str	r3, [r5, #48]	; 0x30
 8000622:	6b2b      	ldr	r3, [r5, #48]	; 0x30
 8000624:	f003 0304 	and.w	r3, r3, #4
 8000628:	9301      	str	r3, [sp, #4]
 800062a:	9b01      	ldr	r3, [sp, #4]
 800062c:	9402      	str	r4, [sp, #8]
 800062e:	6b2b      	ldr	r3, [r5, #48]	; 0x30
 8000630:	f043 0380 	orr.w	r3, r3, #128	; 0x80
 8000634:	632b      	str	r3, [r5, #48]	; 0x30
 8000636:	6b2b      	ldr	r3, [r5, #48]	; 0x30
 8000638:	f003 0380 	and.w	r3, r3, #128	; 0x80
 800063c:	9302      	str	r3, [sp, #8]
 800063e:	9b02      	ldr	r3, [sp, #8]
 8000640:	9403      	str	r4, [sp, #12]
 8000642:	6b2b      	ldr	r3, [r5, #48]	; 0x30
 8000644:	4333      	orrs	r3, r6
 8000646:	632b      	str	r3, [r5, #48]	; 0x30
 8000648:	6b2b      	ldr	r3, [r5, #48]	; 0x30
 800064a:	4033      	ands	r3, r6
 800064c:	9303      	str	r3, [sp, #12]
 800064e:	9b03      	ldr	r3, [sp, #12]
 8000650:	9404      	str	r4, [sp, #16]
 8000652:	6b2b      	ldr	r3, [r5, #48]	; 0x30
 8000654:	f043 0302 	orr.w	r3, r3, #2
 8000658:	632b      	str	r3, [r5, #48]	; 0x30
 800065a:	6b2b      	ldr	r3, [r5, #48]	; 0x30
 800065c:	f003 0302 	and.w	r3, r3, #2
 8000660:	9304      	str	r3, [sp, #16]
 8000662:	9b04      	ldr	r3, [sp, #16]
 8000664:	9405      	str	r4, [sp, #20]
 8000666:	6b2b      	ldr	r3, [r5, #48]	; 0x30
 8000668:	f043 0308 	orr.w	r3, r3, #8
 800066c:	632b      	str	r3, [r5, #48]	; 0x30
 800066e:	6b2b      	ldr	r3, [r5, #48]	; 0x30
 8000670:	f003 0308 	and.w	r3, r3, #8
 8000674:	9305      	str	r3, [sp, #20]
 8000676:	4622      	mov	r2, r4
 8000678:	f641 51e7 	movw	r1, #7655	; 0x1de7
 800067c:	9b05      	ldr	r3, [sp, #20]
 800067e:	f001 fa47 	bl	8001b10 <HAL_GPIO_WritePin>
 8000682:	4892      	ldr	r0, [pc, #584]	; (80008cc <main+0x2d8>)
 8000684:	4622      	mov	r2, r4
 8000686:	f641 0110 	movw	r1, #6160	; 0x1810
 800068a:	f001 fa41 	bl	8001b10 <HAL_GPIO_WritePin>
 800068e:	4890      	ldr	r0, [pc, #576]	; (80008d0 <main+0x2dc>)
 8000690:	4622      	mov	r2, r4
 8000692:	f44f 51c8 	mov.w	r1, #6400	; 0x1900
 8000696:	f001 fa3b 	bl	8001b10 <HAL_GPIO_WritePin>
 800069a:	4622      	mov	r2, r4
 800069c:	488d      	ldr	r0, [pc, #564]	; (80008d4 <main+0x2e0>)
 800069e:	2104      	movs	r1, #4
 80006a0:	f001 fa36 	bl	8001b10 <HAL_GPIO_WritePin>
 80006a4:	f44f 5300 	mov.w	r3, #8192	; 0x2000
 80006a8:	4887      	ldr	r0, [pc, #540]	; (80008c8 <main+0x2d4>)
 80006aa:	9411      	str	r4, [sp, #68]	; 0x44
 80006ac:	a90f      	add	r1, sp, #60	; 0x3c
 80006ae:	e9cd 340f 	strd	r3, r4, [sp, #60]	; 0x3c
 80006b2:	f001 f953 	bl	800195c <HAL_GPIO_Init>
 80006b6:	f641 53e7 	movw	r3, #7655	; 0x1de7
 80006ba:	4883      	ldr	r0, [pc, #524]	; (80008c8 <main+0x2d4>)
 80006bc:	a90f      	add	r1, sp, #60	; 0x3c
 80006be:	e9cd 360f 	strd	r3, r6, [sp, #60]	; 0x3c
 80006c2:	e9cd 4411 	strd	r4, r4, [sp, #68]	; 0x44
 80006c6:	f04f 0808 	mov.w	r8, #8
 80006ca:	f001 f947 	bl	800195c <HAL_GPIO_Init>
 80006ce:	4880      	ldr	r0, [pc, #512]	; (80008d0 <main+0x2dc>)
 80006d0:	9411      	str	r4, [sp, #68]	; 0x44
 80006d2:	a90f      	add	r1, sp, #60	; 0x3c
 80006d4:	e9cd 840f 	strd	r8, r4, [sp, #60]	; 0x3c
 80006d8:	f001 f940 	bl	800195c <HAL_GPIO_Init>
 80006dc:	f244 4324 	movw	r3, #17444	; 0x4424
 80006e0:	487a      	ldr	r0, [pc, #488]	; (80008cc <main+0x2d8>)
 80006e2:	9411      	str	r4, [sp, #68]	; 0x44
 80006e4:	a90f      	add	r1, sp, #60	; 0x3c
 80006e6:	e9cd 340f 	strd	r3, r4, [sp, #60]	; 0x3c
 80006ea:	f001 f937 	bl	800195c <HAL_GPIO_Init>
 80006ee:	f641 0310 	movw	r3, #6160	; 0x1810
 80006f2:	4876      	ldr	r0, [pc, #472]	; (80008cc <main+0x2d8>)
 80006f4:	a90f      	add	r1, sp, #60	; 0x3c
 80006f6:	e9cd 360f 	strd	r3, r6, [sp, #60]	; 0x3c
 80006fa:	e9cd 4411 	strd	r4, r4, [sp, #68]	; 0x44
 80006fe:	f001 f92d 	bl	800195c <HAL_GPIO_Init>
 8000702:	f44f 53c8 	mov.w	r3, #6400	; 0x1900
 8000706:	4872      	ldr	r0, [pc, #456]	; (80008d0 <main+0x2dc>)
 8000708:	a90f      	add	r1, sp, #60	; 0x3c
 800070a:	e9cd 360f 	strd	r3, r6, [sp, #60]	; 0x3c
 800070e:	e9cd 4411 	strd	r4, r4, [sp, #68]	; 0x44
 8000712:	2704      	movs	r7, #4
 8000714:	f001 f922 	bl	800195c <HAL_GPIO_Init>
 8000718:	486e      	ldr	r0, [pc, #440]	; (80008d4 <main+0x2e0>)
 800071a:	a90f      	add	r1, sp, #60	; 0x3c
 800071c:	e9cd 760f 	strd	r7, r6, [sp, #60]	; 0x3c
 8000720:	e9cd 4411 	strd	r4, r4, [sp, #68]	; 0x44
 8000724:	f001 f91a 	bl	800195c <HAL_GPIO_Init>
 8000728:	9400      	str	r4, [sp, #0]
 800072a:	6b2b      	ldr	r3, [r5, #48]	; 0x30
 800072c:	f443 0380 	orr.w	r3, r3, #4194304	; 0x400000
 8000730:	632b      	str	r3, [r5, #48]	; 0x30
 8000732:	6b2b      	ldr	r3, [r5, #48]	; 0x30
 8000734:	f403 0380 	and.w	r3, r3, #4194304	; 0x400000
 8000738:	4622      	mov	r2, r4
 800073a:	4621      	mov	r1, r4
 800073c:	9300      	str	r3, [sp, #0]
 800073e:	2038      	movs	r0, #56	; 0x38
 8000740:	9b00      	ldr	r3, [sp, #0]
 8000742:	f000 ff65 	bl	8001610 <HAL_NVIC_SetPriority>
 8000746:	2038      	movs	r0, #56	; 0x38
 8000748:	f000 ff94 	bl	8001674 <HAL_NVIC_EnableIRQ>
 800074c:	4862      	ldr	r0, [pc, #392]	; (80008d8 <main+0x2e4>)
 800074e:	f8df c1a4 	ldr.w	ip, [pc, #420]	; 80008f4 <main+0x300>
 8000752:	6284      	str	r4, [r0, #40]	; 0x28
 8000754:	f44f 7382 	mov.w	r3, #260	; 0x104
 8000758:	e9c0 c300 	strd	ip, r3, [r0]
 800075c:	f44f 7e00 	mov.w	lr, #512	; 0x200
 8000760:	2318      	movs	r3, #24
 8000762:	e9c0 e306 	strd	lr, r3, [r0, #24]
 8000766:	230a      	movs	r3, #10
 8000768:	e9c0 4402 	strd	r4, r4, [r0, #8]
 800076c:	e9c0 4404 	strd	r4, r4, [r0, #16]
 8000770:	e9c0 4408 	strd	r4, r4, [r0, #32]
 8000774:	62c3      	str	r3, [r0, #44]	; 0x2c
 8000776:	f001 fc73 	bl	8002060 <HAL_SPI_Init>
 800077a:	4605      	mov	r5, r0
 800077c:	b108      	cbz	r0, 8000782 <main+0x18e>
 800077e:	b672      	cpsid	i
 8000780:	e7fe      	b.n	8000780 <main+0x18c>
 8000782:	4601      	mov	r1, r0
 8000784:	2210      	movs	r2, #16
 8000786:	a808      	add	r0, sp, #32
 8000788:	f002 fd10 	bl	80031ac <memset>
 800078c:	2220      	movs	r2, #32
 800078e:	4629      	mov	r1, r5
 8000790:	a80f      	add	r0, sp, #60	; 0x3c
 8000792:	f002 fd0b 	bl	80031ac <memset>
 8000796:	4c51      	ldr	r4, [pc, #324]	; (80008dc <main+0x2e8>)
 8000798:	4b51      	ldr	r3, [pc, #324]	; (80008e0 <main+0x2ec>)
 800079a:	60a5      	str	r5, [r4, #8]
 800079c:	e9c4 3500 	strd	r3, r5, [r4]
 80007a0:	f04f 0905 	mov.w	r9, #5
 80007a4:	4b4f      	ldr	r3, [pc, #316]	; (80008e4 <main+0x2f0>)
 80007a6:	6126      	str	r6, [r4, #16]
 80007a8:	4620      	mov	r0, r4
 80007aa:	7625      	strb	r5, [r4, #24]
 80007ac:	f884 5020 	strb.w	r5, [r4, #32]
 80007b0:	62e5      	str	r5, [r4, #44]	; 0x2c
 80007b2:	62a3      	str	r3, [r4, #40]	; 0x28
 80007b4:	60e5      	str	r5, [r4, #12]
 80007b6:	f8c4 901c 	str.w	r9, [r4, #28]
 80007ba:	f884 5030 	strb.w	r5, [r4, #48]	; 0x30
 80007be:	6166      	str	r6, [r4, #20]
 80007c0:	f000 fd16 	bl	80011f0 <HAL_ADC_Init>
 80007c4:	b108      	cbz	r0, 80007ca <main+0x1d6>
 80007c6:	b672      	cpsid	i
 80007c8:	e7fe      	b.n	80007c8 <main+0x1d4>
 80007ca:	a908      	add	r1, sp, #32
 80007cc:	4620      	mov	r0, r4
 80007ce:	e9cd 7608 	strd	r7, r6, [sp, #32]
 80007d2:	970a      	str	r7, [sp, #40]	; 0x28
 80007d4:	f000 fdb2 	bl	800133c <HAL_ADC_ConfigChannel>
 80007d8:	b108      	cbz	r0, 80007de <main+0x1ea>
 80007da:	b672      	cpsid	i
 80007dc:	e7fe      	b.n	80007dc <main+0x1e8>
 80007de:	f8cd 8020 	str.w	r8, [sp, #32]
 80007e2:	a908      	add	r1, sp, #32
 80007e4:	f04f 0802 	mov.w	r8, #2
 80007e8:	4620      	mov	r0, r4
 80007ea:	f8cd 8024 	str.w	r8, [sp, #36]	; 0x24
 80007ee:	f000 fda5 	bl	800133c <HAL_ADC_ConfigChannel>
 80007f2:	b108      	cbz	r0, 80007f8 <main+0x204>
 80007f4:	b672      	cpsid	i
 80007f6:	e7fe      	b.n	80007f6 <main+0x202>
 80007f8:	2309      	movs	r3, #9
 80007fa:	2503      	movs	r5, #3
 80007fc:	a908      	add	r1, sp, #32
 80007fe:	4620      	mov	r0, r4
 8000800:	e9cd 3508 	strd	r3, r5, [sp, #32]
 8000804:	f000 fd9a 	bl	800133c <HAL_ADC_ConfigChannel>
 8000808:	b108      	cbz	r0, 800080e <main+0x21a>
 800080a:	b672      	cpsid	i
 800080c:	e7fe      	b.n	800080c <main+0x218>
 800080e:	230d      	movs	r3, #13
 8000810:	a908      	add	r1, sp, #32
 8000812:	4620      	mov	r0, r4
 8000814:	e9cd 3708 	strd	r3, r7, [sp, #32]
 8000818:	f000 fd90 	bl	800133c <HAL_ADC_ConfigChannel>
 800081c:	b108      	cbz	r0, 8000822 <main+0x22e>
 800081e:	b672      	cpsid	i
 8000820:	e7fe      	b.n	8000820 <main+0x22c>
 8000822:	230e      	movs	r3, #14
 8000824:	a908      	add	r1, sp, #32
 8000826:	4620      	mov	r0, r4
 8000828:	e9cd 3908 	strd	r3, r9, [sp, #32]
 800082c:	f000 fd86 	bl	800133c <HAL_ADC_ConfigChannel>
 8000830:	b108      	cbz	r0, 8000836 <main+0x242>
 8000832:	b672      	cpsid	i
 8000834:	e7fe      	b.n	8000834 <main+0x240>
 8000836:	e9cd 7011 	strd	r7, r0, [sp, #68]	; 0x44
 800083a:	4b2b      	ldr	r3, [pc, #172]	; (80008e8 <main+0x2f4>)
 800083c:	9016      	str	r0, [sp, #88]	; 0x58
 800083e:	f8ad 0050 	strh.w	r0, [sp, #80]	; 0x50
 8000842:	a90f      	add	r1, sp, #60	; 0x3c
 8000844:	4620      	mov	r0, r4
 8000846:	e9cd 760f 	strd	r7, r6, [sp, #60]	; 0x3c
 800084a:	9315      	str	r3, [sp, #84]	; 0x54
 800084c:	9713      	str	r7, [sp, #76]	; 0x4c
 800084e:	f000 fe05 	bl	800145c <HAL_ADCEx_InjectedConfigChannel>
 8000852:	b108      	cbz	r0, 8000858 <main+0x264>
 8000854:	b672      	cpsid	i
 8000856:	e7fe      	b.n	8000856 <main+0x262>
 8000858:	e9cd 8010 	strd	r8, r0, [sp, #64]	; 0x40
 800085c:	a90f      	add	r1, sp, #60	; 0x3c
 800085e:	4620      	mov	r0, r4
 8000860:	f000 fdfc 	bl	800145c <HAL_ADCEx_InjectedConfigChannel>
 8000864:	b108      	cbz	r0, 800086a <main+0x276>
 8000866:	b672      	cpsid	i
 8000868:	e7fe      	b.n	8000868 <main+0x274>
 800086a:	a90f      	add	r1, sp, #60	; 0x3c
 800086c:	4620      	mov	r0, r4
 800086e:	9510      	str	r5, [sp, #64]	; 0x40
 8000870:	f000 fdf4 	bl	800145c <HAL_ADCEx_InjectedConfigChannel>
 8000874:	b108      	cbz	r0, 800087a <main+0x286>
 8000876:	b672      	cpsid	i
 8000878:	e7fe      	b.n	8000878 <main+0x284>
 800087a:	2304      	movs	r3, #4
 800087c:	4817      	ldr	r0, [pc, #92]	; (80008dc <main+0x2e8>)
 800087e:	9310      	str	r3, [sp, #64]	; 0x40
 8000880:	a90f      	add	r1, sp, #60	; 0x3c
 8000882:	f000 fdeb 	bl	800145c <HAL_ADCEx_InjectedConfigChannel>
 8000886:	b108      	cbz	r0, 800088c <main+0x298>
 8000888:	b672      	cpsid	i
 800088a:	e7fe      	b.n	800088a <main+0x296>
 800088c:	4b17      	ldr	r3, [pc, #92]	; (80008ec <main+0x2f8>)
 800088e:	4d18      	ldr	r5, [pc, #96]	; (80008f0 <main+0x2fc>)
 8000890:	6298      	str	r0, [r3, #40]	; 0x28
 8000892:	f44f 7282 	mov.w	r2, #260	; 0x104
 8000896:	e9c3 5200 	strd	r5, r2, [r3]
 800089a:	f44f 4200 	mov.w	r2, #32768	; 0x8000
 800089e:	e9c3 2002 	strd	r2, r0, [r3, #8]
 80008a2:	f44f 7200 	mov.w	r2, #512	; 0x200
 80008a6:	e9c3 0004 	strd	r0, r0, [r3, #16]
 80008aa:	e9c3 2006 	strd	r2, r0, [r3, #24]
 80008ae:	e9c3 0008 	strd	r0, r0, [r3, #32]
 80008b2:	270a      	movs	r7, #10
 80008b4:	4618      	mov	r0, r3
 80008b6:	62df      	str	r7, [r3, #44]	; 0x2c
 80008b8:	f001 fbd2 	bl	8002060 <HAL_SPI_Init>
 80008bc:	b1e0      	cbz	r0, 80008f8 <main+0x304>
 80008be:	b672      	cpsid	i
 80008c0:	e7fe      	b.n	80008c0 <main+0x2cc>
 80008c2:	bf00      	nop
 80008c4:	40023800 	.word	0x40023800
 80008c8:	40020800 	.word	0x40020800
 80008cc:	40020400 	.word	0x40020400
 80008d0:	40020000 	.word	0x40020000
 80008d4:	40020c00 	.word	0x40020c00
 80008d8:	20000130 	.word	0x20000130
 80008dc:	20000088 	.word	0x20000088
 80008e0:	40012000 	.word	0x40012000
 80008e4:	0f000001 	.word	0x0f000001
 80008e8:	000f0001 	.word	0x000f0001
 80008ec:	20000188 	.word	0x20000188
 80008f0:	40003800 	.word	0x40003800
 80008f4:	40013000 	.word	0x40013000
 80008f8:	4b99      	ldr	r3, [pc, #612]	; (8000b60 <main+0x56c>)
 80008fa:	4c9a      	ldr	r4, [pc, #616]	; (8000b64 <main+0x570>)
 80008fc:	6118      	str	r0, [r3, #16]
 80008fe:	f44f 32e1 	mov.w	r2, #115200	; 0x1c200
 8000902:	e9c3 4200 	strd	r4, r2, [r3]
 8000906:	220c      	movs	r2, #12
 8000908:	e9c3 0002 	strd	r0, r0, [r3, #8]
 800090c:	e9c3 2005 	strd	r2, r0, [r3, #20]
 8000910:	61d8      	str	r0, [r3, #28]
 8000912:	4618      	mov	r0, r3
 8000914:	f002 f8e6 	bl	8002ae4 <HAL_UART_Init>
 8000918:	4604      	mov	r4, r0
 800091a:	b108      	cbz	r0, 8000920 <main+0x32c>
 800091c:	b672      	cpsid	i
 800091e:	e7fe      	b.n	800091e <main+0x32a>
 8000920:	4601      	mov	r1, r0
 8000922:	2224      	movs	r2, #36	; 0x24
 8000924:	a80f      	add	r0, sp, #60	; 0x3c
 8000926:	f002 fc41 	bl	80031ac <memset>
 800092a:	4d8f      	ldr	r5, [pc, #572]	; (8000b68 <main+0x574>)
 800092c:	221c      	movs	r2, #28
 800092e:	4621      	mov	r1, r4
 8000930:	a808      	add	r0, sp, #32
 8000932:	e9cd 4406 	strd	r4, r4, [sp, #24]
 8000936:	f002 fc39 	bl	80031ac <memset>
 800093a:	f04f 4380 	mov.w	r3, #1073741824	; 0x40000000
 800093e:	e9c5 3400 	strd	r3, r4, [r5]
 8000942:	f64f 76ff 	movw	r6, #65535	; 0xffff
 8000946:	2380      	movs	r3, #128	; 0x80
 8000948:	4628      	mov	r0, r5
 800094a:	e9c5 6403 	strd	r6, r4, [r5, #12]
 800094e:	60ac      	str	r4, [r5, #8]
 8000950:	61ab      	str	r3, [r5, #24]
 8000952:	f001 fe01 	bl	8002558 <HAL_TIM_PWM_Init>
 8000956:	b108      	cbz	r0, 800095c <main+0x368>
 8000958:	b672      	cpsid	i
 800095a:	e7fe      	b.n	800095a <main+0x366>
 800095c:	2303      	movs	r3, #3
 800095e:	e9cd 300f 	strd	r3, r0, [sp, #60]	; 0x3c
 8000962:	2301      	movs	r3, #1
 8000964:	e9cd 3011 	strd	r3, r0, [sp, #68]	; 0x44
 8000968:	e9cd 7013 	strd	r7, r0, [sp, #76]	; 0x4c
 800096c:	e9cd 3015 	strd	r3, r0, [sp, #84]	; 0x54
 8000970:	9017      	str	r0, [sp, #92]	; 0x5c
 8000972:	a90f      	add	r1, sp, #60	; 0x3c
 8000974:	4628      	mov	r0, r5
 8000976:	f001 fe1b 	bl	80025b0 <HAL_TIM_Encoder_Init>
 800097a:	b108      	cbz	r0, 8000980 <main+0x38c>
 800097c:	b672      	cpsid	i
 800097e:	e7fe      	b.n	800097e <main+0x38a>
 8000980:	e9cd 0006 	strd	r0, r0, [sp, #24]
 8000984:	a906      	add	r1, sp, #24
 8000986:	4628      	mov	r0, r5
 8000988:	f002 f80e 	bl	80029a8 <HAL_TIMEx_MasterConfigSynchronization>
 800098c:	b108      	cbz	r0, 8000992 <main+0x39e>
 800098e:	b672      	cpsid	i
 8000990:	e7fe      	b.n	8000990 <main+0x39c>
 8000992:	2360      	movs	r3, #96	; 0x60
 8000994:	e9cd 3008 	strd	r3, r0, [sp, #32]
 8000998:	900a      	str	r0, [sp, #40]	; 0x28
 800099a:	900c      	str	r0, [sp, #48]	; 0x30
 800099c:	2208      	movs	r2, #8
 800099e:	a908      	add	r1, sp, #32
 80009a0:	4628      	mov	r0, r5
 80009a2:	f001 fe8f 	bl	80026c4 <HAL_TIM_PWM_ConfigChannel>
 80009a6:	4604      	mov	r4, r0
 80009a8:	b108      	cbz	r0, 80009ae <main+0x3ba>
 80009aa:	b672      	cpsid	i
 80009ac:	e7fe      	b.n	80009ac <main+0x3b8>
 80009ae:	4628      	mov	r0, r5
 80009b0:	f000 faaa 	bl	8000f08 <HAL_TIM_MspPostInit>
 80009b4:	2210      	movs	r2, #16
 80009b6:	4621      	mov	r1, r4
 80009b8:	a808      	add	r0, sp, #32
 80009ba:	f002 fbf7 	bl	80031ac <memset>
 80009be:	4d6b      	ldr	r5, [pc, #428]	; (8000b6c <main+0x578>)
 80009c0:	221c      	movs	r2, #28
 80009c2:	4621      	mov	r1, r4
 80009c4:	a80f      	add	r0, sp, #60	; 0x3c
 80009c6:	e9cd 4406 	strd	r4, r4, [sp, #24]
 80009ca:	f002 fbef 	bl	80031ac <memset>
 80009ce:	4b68      	ldr	r3, [pc, #416]	; (8000b70 <main+0x57c>)
 80009d0:	612c      	str	r4, [r5, #16]
 80009d2:	4628      	mov	r0, r5
 80009d4:	e9c5 3400 	strd	r3, r4, [r5]
 80009d8:	e9c5 4602 	strd	r4, r6, [r5, #8]
 80009dc:	61ac      	str	r4, [r5, #24]
 80009de:	f001 fd8f 	bl	8002500 <HAL_TIM_Base_Init>
 80009e2:	b108      	cbz	r0, 80009e8 <main+0x3f4>
 80009e4:	b672      	cpsid	i
 80009e6:	e7fe      	b.n	80009e6 <main+0x3f2>
 80009e8:	f44f 5380 	mov.w	r3, #4096	; 0x1000
 80009ec:	a908      	add	r1, sp, #32
 80009ee:	4628      	mov	r0, r5
 80009f0:	9308      	str	r3, [sp, #32]
 80009f2:	f001 feca 	bl	800278a <HAL_TIM_ConfigClockSource>
 80009f6:	b108      	cbz	r0, 80009fc <main+0x408>
 80009f8:	b672      	cpsid	i
 80009fa:	e7fe      	b.n	80009fa <main+0x406>
 80009fc:	4628      	mov	r0, r5
 80009fe:	f001 fdab 	bl	8002558 <HAL_TIM_PWM_Init>
 8000a02:	b108      	cbz	r0, 8000a08 <main+0x414>
 8000a04:	b672      	cpsid	i
 8000a06:	e7fe      	b.n	8000a06 <main+0x412>
 8000a08:	2300      	movs	r3, #0
 8000a0a:	4858      	ldr	r0, [pc, #352]	; (8000b6c <main+0x578>)
 8000a0c:	a906      	add	r1, sp, #24
 8000a0e:	e9cd 3306 	strd	r3, r3, [sp, #24]
 8000a12:	f001 ffc9 	bl	80029a8 <HAL_TIMEx_MasterConfigSynchronization>
 8000a16:	4602      	mov	r2, r0
 8000a18:	b108      	cbz	r0, 8000a1e <main+0x42a>
 8000a1a:	b672      	cpsid	i
 8000a1c:	e7fe      	b.n	8000a1c <main+0x428>
 8000a1e:	2360      	movs	r3, #96	; 0x60
 8000a20:	e9cd 300f 	strd	r3, r0, [sp, #60]	; 0x3c
 8000a24:	9011      	str	r0, [sp, #68]	; 0x44
 8000a26:	9013      	str	r0, [sp, #76]	; 0x4c
 8000a28:	a90f      	add	r1, sp, #60	; 0x3c
 8000a2a:	4850      	ldr	r0, [pc, #320]	; (8000b6c <main+0x578>)
 8000a2c:	f001 fe4a 	bl	80026c4 <HAL_TIM_PWM_ConfigChannel>
 8000a30:	b108      	cbz	r0, 8000a36 <main+0x442>
 8000a32:	b672      	cpsid	i
 8000a34:	e7fe      	b.n	8000a34 <main+0x440>
 8000a36:	484d      	ldr	r0, [pc, #308]	; (8000b6c <main+0x578>)
 8000a38:	2204      	movs	r2, #4
 8000a3a:	a90f      	add	r1, sp, #60	; 0x3c
 8000a3c:	f001 fe42 	bl	80026c4 <HAL_TIM_PWM_ConfigChannel>
 8000a40:	b108      	cbz	r0, 8000a46 <main+0x452>
 8000a42:	b672      	cpsid	i
 8000a44:	e7fe      	b.n	8000a44 <main+0x450>
 8000a46:	4849      	ldr	r0, [pc, #292]	; (8000b6c <main+0x578>)
 8000a48:	2208      	movs	r2, #8
 8000a4a:	a90f      	add	r1, sp, #60	; 0x3c
 8000a4c:	f001 fe3a 	bl	80026c4 <HAL_TIM_PWM_ConfigChannel>
 8000a50:	b108      	cbz	r0, 8000a56 <main+0x462>
 8000a52:	b672      	cpsid	i
 8000a54:	e7fe      	b.n	8000a54 <main+0x460>
 8000a56:	4845      	ldr	r0, [pc, #276]	; (8000b6c <main+0x578>)
 8000a58:	220c      	movs	r2, #12
 8000a5a:	a90f      	add	r1, sp, #60	; 0x3c
 8000a5c:	f001 fe32 	bl	80026c4 <HAL_TIM_PWM_ConfigChannel>
 8000a60:	4604      	mov	r4, r0
 8000a62:	b108      	cbz	r0, 8000a68 <main+0x474>
 8000a64:	b672      	cpsid	i
 8000a66:	e7fe      	b.n	8000a66 <main+0x472>
 8000a68:	4840      	ldr	r0, [pc, #256]	; (8000b6c <main+0x578>)
 8000a6a:	4d42      	ldr	r5, [pc, #264]	; (8000b74 <main+0x580>)
 8000a6c:	f000 fa4c 	bl	8000f08 <HAL_TIM_MspPostInit>
 8000a70:	2220      	movs	r2, #32
 8000a72:	4621      	mov	r1, r4
 8000a74:	a810      	add	r0, sp, #64	; 0x40
 8000a76:	f002 fb99 	bl	80031ac <memset>
 8000a7a:	4b3f      	ldr	r3, [pc, #252]	; (8000b78 <main+0x584>)
 8000a7c:	60ac      	str	r4, [r5, #8]
 8000a7e:	e9c5 3400 	strd	r3, r4, [r5]
 8000a82:	2380      	movs	r3, #128	; 0x80
 8000a84:	61ab      	str	r3, [r5, #24]
 8000a86:	2303      	movs	r3, #3
 8000a88:	f64f 76ff 	movw	r6, #65535	; 0xffff
 8000a8c:	930f      	str	r3, [sp, #60]	; 0x3c
 8000a8e:	220a      	movs	r2, #10
 8000a90:	2301      	movs	r3, #1
 8000a92:	a90f      	add	r1, sp, #60	; 0x3c
 8000a94:	4628      	mov	r0, r5
 8000a96:	e9cd 4408 	strd	r4, r4, [sp, #32]
 8000a9a:	e9c5 6403 	strd	r6, r4, [r5, #12]
 8000a9e:	9311      	str	r3, [sp, #68]	; 0x44
 8000aa0:	9213      	str	r2, [sp, #76]	; 0x4c
 8000aa2:	9315      	str	r3, [sp, #84]	; 0x54
 8000aa4:	f001 fd84 	bl	80025b0 <HAL_TIM_Encoder_Init>
 8000aa8:	b108      	cbz	r0, 8000aae <main+0x4ba>
 8000aaa:	b672      	cpsid	i
 8000aac:	e7fe      	b.n	8000aac <main+0x4b8>
 8000aae:	e9cd 0008 	strd	r0, r0, [sp, #32]
 8000ab2:	a908      	add	r1, sp, #32
 8000ab4:	4628      	mov	r0, r5
 8000ab6:	f001 ff77 	bl	80029a8 <HAL_TIMEx_MasterConfigSynchronization>
 8000aba:	b108      	cbz	r0, 8000ac0 <main+0x4cc>
 8000abc:	b672      	cpsid	i
 8000abe:	e7fe      	b.n	8000abe <main+0x4ca>
 8000ac0:	4c2e      	ldr	r4, [pc, #184]	; (8000b7c <main+0x588>)
 8000ac2:	4b2f      	ldr	r3, [pc, #188]	; (8000b80 <main+0x58c>)
 8000ac4:	61a0      	str	r0, [r4, #24]
 8000ac6:	e9cd 000f 	strd	r0, r0, [sp, #60]	; 0x3c
 8000aca:	e9c4 3000 	strd	r3, r0, [r4]
 8000ace:	e9c4 0602 	strd	r0, r6, [r4, #8]
 8000ad2:	4620      	mov	r0, r4
 8000ad4:	f001 fd14 	bl	8002500 <HAL_TIM_Base_Init>
 8000ad8:	b108      	cbz	r0, 8000ade <main+0x4ea>
 8000ada:	b672      	cpsid	i
 8000adc:	e7fe      	b.n	8000adc <main+0x4e8>
 8000ade:	e9cd 000f 	strd	r0, r0, [sp, #60]	; 0x3c
 8000ae2:	a90f      	add	r1, sp, #60	; 0x3c
 8000ae4:	4620      	mov	r0, r4
 8000ae6:	f001 ff5f 	bl	80029a8 <HAL_TIMEx_MasterConfigSynchronization>
 8000aea:	b108      	cbz	r0, 8000af0 <main+0x4fc>
 8000aec:	b672      	cpsid	i
 8000aee:	e7fe      	b.n	8000aee <main+0x4fa>
 8000af0:	4b24      	ldr	r3, [pc, #144]	; (8000b84 <main+0x590>)
 8000af2:	4925      	ldr	r1, [pc, #148]	; (8000b88 <main+0x594>)
 8000af4:	6118      	str	r0, [r3, #16]
 8000af6:	e9c3 0602 	strd	r0, r6, [r3, #8]
 8000afa:	2208      	movs	r2, #8
 8000afc:	6198      	str	r0, [r3, #24]
 8000afe:	4618      	mov	r0, r3
 8000b00:	e9c3 1200 	strd	r1, r2, [r3]
 8000b04:	f001 fcfc 	bl	8002500 <HAL_TIM_Base_Init>
 8000b08:	b108      	cbz	r0, 8000b0e <main+0x51a>
 8000b0a:	b672      	cpsid	i
 8000b0c:	e7fe      	b.n	8000b0c <main+0x518>
 8000b0e:	f002 f817 	bl	8002b40 <encoderInit>
 8000b12:	f002 f825 	bl	8002b60 <motorInit>
 8000b16:	481d      	ldr	r0, [pc, #116]	; (8000b8c <main+0x598>)
 8000b18:	4c1d      	ldr	r4, [pc, #116]	; (8000b90 <main+0x59c>)
 8000b1a:	4d1e      	ldr	r5, [pc, #120]	; (8000b94 <main+0x5a0>)
 8000b1c:	f002 fa66 	bl	8002fec <puts>
 8000b20:	f04f 4360 	mov.w	r3, #3758096384	; 0xe0000000
 8000b24:	2202      	movs	r2, #2
 8000b26:	67da      	str	r2, [r3, #124]	; 0x7c
 8000b28:	8821      	ldrh	r1, [r4, #0]
 8000b2a:	4628      	mov	r0, r5
 8000b2c:	f002 f9f8 	bl	8002f20 <iprintf>
 8000b30:	8823      	ldrh	r3, [r4, #0]
 8000b32:	eef7 0a00 	vmov.f32	s1, #112	; 0x3f800000  1.0
 8000b36:	3301      	adds	r3, #1
 8000b38:	eeb0 0a60 	vmov.f32	s0, s1
 8000b3c:	8023      	strh	r3, [r4, #0]
 8000b3e:	f002 f889 	bl	8002c54 <setWheels>
 8000b42:	f44f 707a 	mov.w	r0, #1000	; 0x3e8
 8000b46:	f000 fb3f 	bl	80011c8 <HAL_Delay>
 8000b4a:	eddf 0a13 	vldr	s1, [pc, #76]	; 8000b98 <main+0x5a4>
 8000b4e:	eeb0 0a60 	vmov.f32	s0, s1
 8000b52:	f002 f87f 	bl	8002c54 <setWheels>
 8000b56:	f44f 707a 	mov.w	r0, #1000	; 0x3e8
 8000b5a:	f000 fb35 	bl	80011c8 <HAL_Delay>
 8000b5e:	e7e3      	b.n	8000b28 <main+0x534>
 8000b60:	20000348 	.word	0x20000348
 8000b64:	40011000 	.word	0x40011000
 8000b68:	20000228 	.word	0x20000228
 8000b6c:	20000270 	.word	0x20000270
 8000b70:	40000800 	.word	0x40000800
 8000b74:	200002b8 	.word	0x200002b8
 8000b78:	40000c00 	.word	0x40000c00
 8000b7c:	20000300 	.word	0x20000300
 8000b80:	40001000 	.word	0x40001000
 8000b84:	200001e0 	.word	0x200001e0
 8000b88:	40002000 	.word	0x40002000
 8000b8c:	08003b7c 	.word	0x08003b7c
 8000b90:	2000038c 	.word	0x2000038c
 8000b94:	08003b89 	.word	0x08003b89
 8000b98:	00000000 	.word	0x00000000

08000b9c <Error_Handler>:
 8000b9c:	b672      	cpsid	i
 8000b9e:	e7fe      	b.n	8000b9e <Error_Handler+0x2>

08000ba0 <HAL_MspInit>:
 8000ba0:	b082      	sub	sp, #8
 8000ba2:	4b0c      	ldr	r3, [pc, #48]	; (8000bd4 <HAL_MspInit+0x34>)
 8000ba4:	2100      	movs	r1, #0
 8000ba6:	9100      	str	r1, [sp, #0]
 8000ba8:	6c5a      	ldr	r2, [r3, #68]	; 0x44
 8000baa:	f442 4280 	orr.w	r2, r2, #16384	; 0x4000
 8000bae:	645a      	str	r2, [r3, #68]	; 0x44
 8000bb0:	6c5a      	ldr	r2, [r3, #68]	; 0x44
 8000bb2:	f402 4280 	and.w	r2, r2, #16384	; 0x4000
 8000bb6:	9200      	str	r2, [sp, #0]
 8000bb8:	9a00      	ldr	r2, [sp, #0]
 8000bba:	9101      	str	r1, [sp, #4]
 8000bbc:	6c1a      	ldr	r2, [r3, #64]	; 0x40
 8000bbe:	f042 5280 	orr.w	r2, r2, #268435456	; 0x10000000
 8000bc2:	641a      	str	r2, [r3, #64]	; 0x40
 8000bc4:	6c1b      	ldr	r3, [r3, #64]	; 0x40
 8000bc6:	f003 5380 	and.w	r3, r3, #268435456	; 0x10000000
 8000bca:	9301      	str	r3, [sp, #4]
 8000bcc:	9b01      	ldr	r3, [sp, #4]
 8000bce:	b002      	add	sp, #8
 8000bd0:	4770      	bx	lr
 8000bd2:	bf00      	nop
 8000bd4:	40023800 	.word	0x40023800

08000bd8 <HAL_ADC_MspInit>:
 8000bd8:	b570      	push	{r4, r5, r6, lr}
 8000bda:	2214      	movs	r2, #20
 8000bdc:	b08a      	sub	sp, #40	; 0x28
 8000bde:	4606      	mov	r6, r0
 8000be0:	2100      	movs	r1, #0
 8000be2:	eb0d 0002 	add.w	r0, sp, r2
 8000be6:	f002 fae1 	bl	80031ac <memset>
 8000bea:	6832      	ldr	r2, [r6, #0]
 8000bec:	4b30      	ldr	r3, [pc, #192]	; (8000cb0 <HAL_ADC_MspInit+0xd8>)
 8000bee:	429a      	cmp	r2, r3
 8000bf0:	d15b      	bne.n	8000caa <HAL_ADC_MspInit+0xd2>
 8000bf2:	f503 338c 	add.w	r3, r3, #71680	; 0x11800
 8000bf6:	2500      	movs	r5, #0
 8000bf8:	9501      	str	r5, [sp, #4]
 8000bfa:	6c5a      	ldr	r2, [r3, #68]	; 0x44
 8000bfc:	482d      	ldr	r0, [pc, #180]	; (8000cb4 <HAL_ADC_MspInit+0xdc>)
 8000bfe:	f442 7280 	orr.w	r2, r2, #256	; 0x100
 8000c02:	645a      	str	r2, [r3, #68]	; 0x44
 8000c04:	6c5a      	ldr	r2, [r3, #68]	; 0x44
 8000c06:	f402 7280 	and.w	r2, r2, #256	; 0x100
 8000c0a:	9201      	str	r2, [sp, #4]
 8000c0c:	9a01      	ldr	r2, [sp, #4]
 8000c0e:	9502      	str	r5, [sp, #8]
 8000c10:	6b1a      	ldr	r2, [r3, #48]	; 0x30
 8000c12:	f042 0204 	orr.w	r2, r2, #4
 8000c16:	631a      	str	r2, [r3, #48]	; 0x30
 8000c18:	6b1a      	ldr	r2, [r3, #48]	; 0x30
 8000c1a:	f002 0204 	and.w	r2, r2, #4
 8000c1e:	9202      	str	r2, [sp, #8]
 8000c20:	9a02      	ldr	r2, [sp, #8]
 8000c22:	9503      	str	r5, [sp, #12]
 8000c24:	6b1a      	ldr	r2, [r3, #48]	; 0x30
 8000c26:	f042 0201 	orr.w	r2, r2, #1
 8000c2a:	631a      	str	r2, [r3, #48]	; 0x30
 8000c2c:	6b1a      	ldr	r2, [r3, #48]	; 0x30
 8000c2e:	f002 0201 	and.w	r2, r2, #1
 8000c32:	9203      	str	r2, [sp, #12]
 8000c34:	9a03      	ldr	r2, [sp, #12]
 8000c36:	9504      	str	r5, [sp, #16]
 8000c38:	6b1a      	ldr	r2, [r3, #48]	; 0x30
 8000c3a:	f042 0202 	orr.w	r2, r2, #2
 8000c3e:	631a      	str	r2, [r3, #48]	; 0x30
 8000c40:	6b1b      	ldr	r3, [r3, #48]	; 0x30
 8000c42:	f003 0302 	and.w	r3, r3, #2
 8000c46:	9304      	str	r3, [sp, #16]
 8000c48:	2403      	movs	r4, #3
 8000c4a:	9b04      	ldr	r3, [sp, #16]
 8000c4c:	a905      	add	r1, sp, #20
 8000c4e:	2318      	movs	r3, #24
 8000c50:	e9cd 3405 	strd	r3, r4, [sp, #20]
 8000c54:	f000 fe82 	bl	800195c <HAL_GPIO_Init>
 8000c58:	2310      	movs	r3, #16
 8000c5a:	4817      	ldr	r0, [pc, #92]	; (8000cb8 <HAL_ADC_MspInit+0xe0>)
 8000c5c:	9507      	str	r5, [sp, #28]
 8000c5e:	a905      	add	r1, sp, #20
 8000c60:	e9cd 3405 	strd	r3, r4, [sp, #20]
 8000c64:	f000 fe7a 	bl	800195c <HAL_GPIO_Init>
 8000c68:	4814      	ldr	r0, [pc, #80]	; (8000cbc <HAL_ADC_MspInit+0xe4>)
 8000c6a:	9507      	str	r5, [sp, #28]
 8000c6c:	a905      	add	r1, sp, #20
 8000c6e:	e9cd 4405 	strd	r4, r4, [sp, #20]
 8000c72:	f000 fe73 	bl	800195c <HAL_GPIO_Init>
 8000c76:	4c12      	ldr	r4, [pc, #72]	; (8000cc0 <HAL_ADC_MspInit+0xe8>)
 8000c78:	4b12      	ldr	r3, [pc, #72]	; (8000cc4 <HAL_ADC_MspInit+0xec>)
 8000c7a:	f44f 6280 	mov.w	r2, #1024	; 0x400
 8000c7e:	e9c4 3500 	strd	r3, r5, [r4]
 8000c82:	f44f 6300 	mov.w	r3, #2048	; 0x800
 8000c86:	e9c4 2304 	strd	r2, r3, [r4, #16]
 8000c8a:	4620      	mov	r0, r4
 8000c8c:	f44f 5300 	mov.w	r3, #8192	; 0x2000
 8000c90:	e9c4 5502 	strd	r5, r5, [r4, #8]
 8000c94:	e9c4 3506 	strd	r3, r5, [r4, #24]
 8000c98:	e9c4 5508 	strd	r5, r5, [r4, #32]
 8000c9c:	f000 fd22 	bl	80016e4 <HAL_DMA_Init>
 8000ca0:	b108      	cbz	r0, 8000ca6 <HAL_ADC_MspInit+0xce>
 8000ca2:	f7ff ff7b 	bl	8000b9c <Error_Handler>
 8000ca6:	63b4      	str	r4, [r6, #56]	; 0x38
 8000ca8:	63a6      	str	r6, [r4, #56]	; 0x38
 8000caa:	b00a      	add	sp, #40	; 0x28
 8000cac:	bd70      	pop	{r4, r5, r6, pc}
 8000cae:	bf00      	nop
 8000cb0:	40012000 	.word	0x40012000
 8000cb4:	40020800 	.word	0x40020800
 8000cb8:	40020000 	.word	0x40020000
 8000cbc:	40020400 	.word	0x40020400
 8000cc0:	200000d0 	.word	0x200000d0
 8000cc4:	40026410 	.word	0x40026410

08000cc8 <HAL_SPI_MspInit>:
 8000cc8:	b510      	push	{r4, lr}
 8000cca:	2214      	movs	r2, #20
 8000ccc:	b08a      	sub	sp, #40	; 0x28
 8000cce:	4604      	mov	r4, r0
 8000cd0:	2100      	movs	r1, #0
 8000cd2:	eb0d 0002 	add.w	r0, sp, r2
 8000cd6:	f002 fa69 	bl	80031ac <memset>
 8000cda:	6823      	ldr	r3, [r4, #0]
 8000cdc:	4a25      	ldr	r2, [pc, #148]	; (8000d74 <HAL_SPI_MspInit+0xac>)
 8000cde:	4293      	cmp	r3, r2
 8000ce0:	d123      	bne.n	8000d2a <HAL_SPI_MspInit+0x62>
 8000ce2:	4b25      	ldr	r3, [pc, #148]	; (8000d78 <HAL_SPI_MspInit+0xb0>)
 8000ce4:	2100      	movs	r1, #0
 8000ce6:	9101      	str	r1, [sp, #4]
 8000ce8:	6c5a      	ldr	r2, [r3, #68]	; 0x44
 8000cea:	f442 5280 	orr.w	r2, r2, #4096	; 0x1000
 8000cee:	645a      	str	r2, [r3, #68]	; 0x44
 8000cf0:	6c5a      	ldr	r2, [r3, #68]	; 0x44
 8000cf2:	f402 5280 	and.w	r2, r2, #4096	; 0x1000
 8000cf6:	9201      	str	r2, [sp, #4]
 8000cf8:	9a01      	ldr	r2, [sp, #4]
 8000cfa:	9102      	str	r1, [sp, #8]
 8000cfc:	6b1a      	ldr	r2, [r3, #48]	; 0x30
 8000cfe:	f042 0201 	orr.w	r2, r2, #1
 8000d02:	631a      	str	r2, [r3, #48]	; 0x30
 8000d04:	6b1b      	ldr	r3, [r3, #48]	; 0x30
 8000d06:	f003 0301 	and.w	r3, r3, #1
 8000d0a:	9302      	str	r3, [sp, #8]
 8000d0c:	20e0      	movs	r0, #224	; 0xe0
 8000d0e:	9b02      	ldr	r3, [sp, #8]
 8000d10:	2302      	movs	r3, #2
 8000d12:	e9cd 0305 	strd	r0, r3, [sp, #20]
 8000d16:	2403      	movs	r4, #3
 8000d18:	2305      	movs	r3, #5
 8000d1a:	e9cd 4308 	strd	r4, r3, [sp, #32]
 8000d1e:	4817      	ldr	r0, [pc, #92]	; (8000d7c <HAL_SPI_MspInit+0xb4>)
 8000d20:	a905      	add	r1, sp, #20
 8000d22:	f000 fe1b 	bl	800195c <HAL_GPIO_Init>
 8000d26:	b00a      	add	sp, #40	; 0x28
 8000d28:	bd10      	pop	{r4, pc}
 8000d2a:	4a15      	ldr	r2, [pc, #84]	; (8000d80 <HAL_SPI_MspInit+0xb8>)
 8000d2c:	4293      	cmp	r3, r2
 8000d2e:	d1fa      	bne.n	8000d26 <HAL_SPI_MspInit+0x5e>
 8000d30:	4b11      	ldr	r3, [pc, #68]	; (8000d78 <HAL_SPI_MspInit+0xb0>)
 8000d32:	4814      	ldr	r0, [pc, #80]	; (8000d84 <HAL_SPI_MspInit+0xbc>)
 8000d34:	2100      	movs	r1, #0
 8000d36:	9103      	str	r1, [sp, #12]
 8000d38:	6c1a      	ldr	r2, [r3, #64]	; 0x40
 8000d3a:	f442 4280 	orr.w	r2, r2, #16384	; 0x4000
 8000d3e:	641a      	str	r2, [r3, #64]	; 0x40
 8000d40:	6c1a      	ldr	r2, [r3, #64]	; 0x40
 8000d42:	f402 4280 	and.w	r2, r2, #16384	; 0x4000
 8000d46:	9203      	str	r2, [sp, #12]
 8000d48:	9a03      	ldr	r2, [sp, #12]
 8000d4a:	9104      	str	r1, [sp, #16]
 8000d4c:	6b1a      	ldr	r2, [r3, #48]	; 0x30
 8000d4e:	f042 0202 	orr.w	r2, r2, #2
 8000d52:	631a      	str	r2, [r3, #48]	; 0x30
 8000d54:	6b1b      	ldr	r3, [r3, #48]	; 0x30
 8000d56:	f003 0302 	and.w	r3, r3, #2
 8000d5a:	9304      	str	r3, [sp, #16]
 8000d5c:	9b04      	ldr	r3, [sp, #16]
 8000d5e:	f44f 4220 	mov.w	r2, #40960	; 0xa000
 8000d62:	2302      	movs	r3, #2
 8000d64:	2103      	movs	r1, #3
 8000d66:	e9cd 2305 	strd	r2, r3, [sp, #20]
 8000d6a:	2305      	movs	r3, #5
 8000d6c:	e9cd 1308 	strd	r1, r3, [sp, #32]
 8000d70:	a905      	add	r1, sp, #20
 8000d72:	e7d6      	b.n	8000d22 <HAL_SPI_MspInit+0x5a>
 8000d74:	40013000 	.word	0x40013000
 8000d78:	40023800 	.word	0x40023800
 8000d7c:	40020000 	.word	0x40020000
 8000d80:	40003800 	.word	0x40003800
 8000d84:	40020400 	.word	0x40020400

08000d88 <HAL_TIM_PWM_MspInit>:
 8000d88:	b570      	push	{r4, r5, r6, lr}
 8000d8a:	4604      	mov	r4, r0
 8000d8c:	b088      	sub	sp, #32
 8000d8e:	2214      	movs	r2, #20
 8000d90:	2100      	movs	r1, #0
 8000d92:	a803      	add	r0, sp, #12
 8000d94:	f002 fa0a 	bl	80031ac <memset>
 8000d98:	6823      	ldr	r3, [r4, #0]
 8000d9a:	f1b3 4f80 	cmp.w	r3, #1073741824	; 0x40000000
 8000d9e:	d135      	bne.n	8000e0c <HAL_TIM_PWM_MspInit+0x84>
 8000da0:	f503 330e 	add.w	r3, r3, #145408	; 0x23800
 8000da4:	2400      	movs	r4, #0
 8000da6:	9400      	str	r4, [sp, #0]
 8000da8:	6c1a      	ldr	r2, [r3, #64]	; 0x40
 8000daa:	4819      	ldr	r0, [pc, #100]	; (8000e10 <HAL_TIM_PWM_MspInit+0x88>)
 8000dac:	f042 0201 	orr.w	r2, r2, #1
 8000db0:	641a      	str	r2, [r3, #64]	; 0x40
 8000db2:	6c1a      	ldr	r2, [r3, #64]	; 0x40
 8000db4:	f002 0201 	and.w	r2, r2, #1
 8000db8:	9200      	str	r2, [sp, #0]
 8000dba:	9a00      	ldr	r2, [sp, #0]
 8000dbc:	9401      	str	r4, [sp, #4]
 8000dbe:	6b1a      	ldr	r2, [r3, #48]	; 0x30
 8000dc0:	f042 0201 	orr.w	r2, r2, #1
 8000dc4:	631a      	str	r2, [r3, #48]	; 0x30
 8000dc6:	6b1a      	ldr	r2, [r3, #48]	; 0x30
 8000dc8:	f002 0201 	and.w	r2, r2, #1
 8000dcc:	9201      	str	r2, [sp, #4]
 8000dce:	9a01      	ldr	r2, [sp, #4]
 8000dd0:	9402      	str	r4, [sp, #8]
 8000dd2:	6b1a      	ldr	r2, [r3, #48]	; 0x30
 8000dd4:	f042 0202 	orr.w	r2, r2, #2
 8000dd8:	631a      	str	r2, [r3, #48]	; 0x30
 8000dda:	6b1b      	ldr	r3, [r3, #48]	; 0x30
 8000ddc:	f003 0302 	and.w	r3, r3, #2
 8000de0:	9302      	str	r3, [sp, #8]
 8000de2:	9b02      	ldr	r3, [sp, #8]
 8000de4:	2602      	movs	r6, #2
 8000de6:	f44f 4300 	mov.w	r3, #32768	; 0x8000
 8000dea:	2501      	movs	r5, #1
 8000dec:	a903      	add	r1, sp, #12
 8000dee:	e9cd 3603 	strd	r3, r6, [sp, #12]
 8000df2:	9507      	str	r5, [sp, #28]
 8000df4:	f000 fdb2 	bl	800195c <HAL_GPIO_Init>
 8000df8:	2308      	movs	r3, #8
 8000dfa:	4806      	ldr	r0, [pc, #24]	; (8000e14 <HAL_TIM_PWM_MspInit+0x8c>)
 8000dfc:	9507      	str	r5, [sp, #28]
 8000dfe:	a903      	add	r1, sp, #12
 8000e00:	e9cd 3603 	strd	r3, r6, [sp, #12]
 8000e04:	e9cd 4405 	strd	r4, r4, [sp, #20]
 8000e08:	f000 fda8 	bl	800195c <HAL_GPIO_Init>
 8000e0c:	b008      	add	sp, #32
 8000e0e:	bd70      	pop	{r4, r5, r6, pc}
 8000e10:	40020000 	.word	0x40020000
 8000e14:	40020400 	.word	0x40020400

08000e18 <HAL_TIM_Base_MspInit>:
 8000e18:	b51f      	push	{r0, r1, r2, r3, r4, lr}
 8000e1a:	6803      	ldr	r3, [r0, #0]
 8000e1c:	4a1d      	ldr	r2, [pc, #116]	; (8000e94 <HAL_TIM_Base_MspInit+0x7c>)
 8000e1e:	4293      	cmp	r3, r2
 8000e20:	d10e      	bne.n	8000e40 <HAL_TIM_Base_MspInit+0x28>
 8000e22:	2300      	movs	r3, #0
 8000e24:	9301      	str	r3, [sp, #4]
 8000e26:	4b1c      	ldr	r3, [pc, #112]	; (8000e98 <HAL_TIM_Base_MspInit+0x80>)
 8000e28:	6c1a      	ldr	r2, [r3, #64]	; 0x40
 8000e2a:	f042 0204 	orr.w	r2, r2, #4
 8000e2e:	641a      	str	r2, [r3, #64]	; 0x40
 8000e30:	6c1b      	ldr	r3, [r3, #64]	; 0x40
 8000e32:	f003 0304 	and.w	r3, r3, #4
 8000e36:	9301      	str	r3, [sp, #4]
 8000e38:	9b01      	ldr	r3, [sp, #4]
 8000e3a:	b005      	add	sp, #20
 8000e3c:	f85d fb04 	ldr.w	pc, [sp], #4
 8000e40:	4a16      	ldr	r2, [pc, #88]	; (8000e9c <HAL_TIM_Base_MspInit+0x84>)
 8000e42:	4293      	cmp	r3, r2
 8000e44:	d10c      	bne.n	8000e60 <HAL_TIM_Base_MspInit+0x48>
 8000e46:	2300      	movs	r3, #0
 8000e48:	9302      	str	r3, [sp, #8]
 8000e4a:	4b13      	ldr	r3, [pc, #76]	; (8000e98 <HAL_TIM_Base_MspInit+0x80>)
 8000e4c:	6c1a      	ldr	r2, [r3, #64]	; 0x40
 8000e4e:	f042 0210 	orr.w	r2, r2, #16
 8000e52:	641a      	str	r2, [r3, #64]	; 0x40
 8000e54:	6c1b      	ldr	r3, [r3, #64]	; 0x40
 8000e56:	f003 0310 	and.w	r3, r3, #16
 8000e5a:	9302      	str	r3, [sp, #8]
 8000e5c:	9b02      	ldr	r3, [sp, #8]
 8000e5e:	e7ec      	b.n	8000e3a <HAL_TIM_Base_MspInit+0x22>
 8000e60:	4a0f      	ldr	r2, [pc, #60]	; (8000ea0 <HAL_TIM_Base_MspInit+0x88>)
 8000e62:	4293      	cmp	r3, r2
 8000e64:	d1e9      	bne.n	8000e3a <HAL_TIM_Base_MspInit+0x22>
 8000e66:	2200      	movs	r2, #0
 8000e68:	4b0b      	ldr	r3, [pc, #44]	; (8000e98 <HAL_TIM_Base_MspInit+0x80>)
 8000e6a:	9203      	str	r2, [sp, #12]
 8000e6c:	6c19      	ldr	r1, [r3, #64]	; 0x40
 8000e6e:	f441 7180 	orr.w	r1, r1, #256	; 0x100
 8000e72:	6419      	str	r1, [r3, #64]	; 0x40
 8000e74:	6c1b      	ldr	r3, [r3, #64]	; 0x40
 8000e76:	f403 7380 	and.w	r3, r3, #256	; 0x100
 8000e7a:	9303      	str	r3, [sp, #12]
 8000e7c:	4611      	mov	r1, r2
 8000e7e:	202d      	movs	r0, #45	; 0x2d
 8000e80:	9b03      	ldr	r3, [sp, #12]
 8000e82:	f000 fbc5 	bl	8001610 <HAL_NVIC_SetPriority>
 8000e86:	202d      	movs	r0, #45	; 0x2d
 8000e88:	b005      	add	sp, #20
 8000e8a:	f85d eb04 	ldr.w	lr, [sp], #4
 8000e8e:	f000 bbf1 	b.w	8001674 <HAL_NVIC_EnableIRQ>
 8000e92:	bf00      	nop
 8000e94:	40000800 	.word	0x40000800
 8000e98:	40023800 	.word	0x40023800
 8000e9c:	40001000 	.word	0x40001000
 8000ea0:	40002000 	.word	0x40002000

08000ea4 <HAL_TIM_Encoder_MspInit>:
 8000ea4:	b510      	push	{r4, lr}
 8000ea6:	4604      	mov	r4, r0
 8000ea8:	b088      	sub	sp, #32
 8000eaa:	2214      	movs	r2, #20
 8000eac:	2100      	movs	r1, #0
 8000eae:	a803      	add	r0, sp, #12
 8000eb0:	f002 f97c 	bl	80031ac <memset>
 8000eb4:	6822      	ldr	r2, [r4, #0]
 8000eb6:	4b12      	ldr	r3, [pc, #72]	; (8000f00 <HAL_TIM_Encoder_MspInit+0x5c>)
 8000eb8:	429a      	cmp	r2, r3
 8000eba:	d11f      	bne.n	8000efc <HAL_TIM_Encoder_MspInit+0x58>
 8000ebc:	f503 330b 	add.w	r3, r3, #142336	; 0x22c00
 8000ec0:	2100      	movs	r1, #0
 8000ec2:	9101      	str	r1, [sp, #4]
 8000ec4:	6c1a      	ldr	r2, [r3, #64]	; 0x40
 8000ec6:	480f      	ldr	r0, [pc, #60]	; (8000f04 <HAL_TIM_Encoder_MspInit+0x60>)
 8000ec8:	f042 0208 	orr.w	r2, r2, #8
 8000ecc:	641a      	str	r2, [r3, #64]	; 0x40
 8000ece:	6c1a      	ldr	r2, [r3, #64]	; 0x40
 8000ed0:	f002 0208 	and.w	r2, r2, #8
 8000ed4:	9201      	str	r2, [sp, #4]
 8000ed6:	9a01      	ldr	r2, [sp, #4]
 8000ed8:	9102      	str	r1, [sp, #8]
 8000eda:	6b1a      	ldr	r2, [r3, #48]	; 0x30
 8000edc:	f042 0201 	orr.w	r2, r2, #1
 8000ee0:	631a      	str	r2, [r3, #48]	; 0x30
 8000ee2:	6b1b      	ldr	r3, [r3, #48]	; 0x30
 8000ee4:	f003 0301 	and.w	r3, r3, #1
 8000ee8:	9302      	str	r3, [sp, #8]
 8000eea:	9b02      	ldr	r3, [sp, #8]
 8000eec:	2203      	movs	r2, #3
 8000eee:	2302      	movs	r3, #2
 8000ef0:	a903      	add	r1, sp, #12
 8000ef2:	e9cd 2303 	strd	r2, r3, [sp, #12]
 8000ef6:	9307      	str	r3, [sp, #28]
 8000ef8:	f000 fd30 	bl	800195c <HAL_GPIO_Init>
 8000efc:	b008      	add	sp, #32
 8000efe:	bd10      	pop	{r4, pc}
 8000f00:	40000c00 	.word	0x40000c00
 8000f04:	40020000 	.word	0x40020000

08000f08 <HAL_TIM_MspPostInit>:
 8000f08:	b510      	push	{r4, lr}
 8000f0a:	4604      	mov	r4, r0
 8000f0c:	b088      	sub	sp, #32
 8000f0e:	2214      	movs	r2, #20
 8000f10:	2100      	movs	r1, #0
 8000f12:	a803      	add	r0, sp, #12
 8000f14:	f002 f94a 	bl	80031ac <memset>
 8000f18:	6823      	ldr	r3, [r4, #0]
 8000f1a:	f1b3 4f80 	cmp.w	r3, #1073741824	; 0x40000000
 8000f1e:	d117      	bne.n	8000f50 <HAL_TIM_MspPostInit+0x48>
 8000f20:	2300      	movs	r3, #0
 8000f22:	9301      	str	r3, [sp, #4]
 8000f24:	4b16      	ldr	r3, [pc, #88]	; (8000f80 <HAL_TIM_MspPostInit+0x78>)
 8000f26:	4817      	ldr	r0, [pc, #92]	; (8000f84 <HAL_TIM_MspPostInit+0x7c>)
 8000f28:	6b1a      	ldr	r2, [r3, #48]	; 0x30
 8000f2a:	f042 0201 	orr.w	r2, r2, #1
 8000f2e:	631a      	str	r2, [r3, #48]	; 0x30
 8000f30:	6b1b      	ldr	r3, [r3, #48]	; 0x30
 8000f32:	f003 0301 	and.w	r3, r3, #1
 8000f36:	9301      	str	r3, [sp, #4]
 8000f38:	2104      	movs	r1, #4
 8000f3a:	9b01      	ldr	r3, [sp, #4]
 8000f3c:	2302      	movs	r3, #2
 8000f3e:	e9cd 1303 	strd	r1, r3, [sp, #12]
 8000f42:	2301      	movs	r3, #1
 8000f44:	9307      	str	r3, [sp, #28]
 8000f46:	a903      	add	r1, sp, #12
 8000f48:	f000 fd08 	bl	800195c <HAL_GPIO_Init>
 8000f4c:	b008      	add	sp, #32
 8000f4e:	bd10      	pop	{r4, pc}
 8000f50:	4a0d      	ldr	r2, [pc, #52]	; (8000f88 <HAL_TIM_MspPostInit+0x80>)
 8000f52:	4293      	cmp	r3, r2
 8000f54:	d1fa      	bne.n	8000f4c <HAL_TIM_MspPostInit+0x44>
 8000f56:	2300      	movs	r3, #0
 8000f58:	9302      	str	r3, [sp, #8]
 8000f5a:	4b09      	ldr	r3, [pc, #36]	; (8000f80 <HAL_TIM_MspPostInit+0x78>)
 8000f5c:	480b      	ldr	r0, [pc, #44]	; (8000f8c <HAL_TIM_MspPostInit+0x84>)
 8000f5e:	6b1a      	ldr	r2, [r3, #48]	; 0x30
 8000f60:	f042 0202 	orr.w	r2, r2, #2
 8000f64:	631a      	str	r2, [r3, #48]	; 0x30
 8000f66:	6b1b      	ldr	r3, [r3, #48]	; 0x30
 8000f68:	f003 0302 	and.w	r3, r3, #2
 8000f6c:	9302      	str	r3, [sp, #8]
 8000f6e:	9b02      	ldr	r3, [sp, #8]
 8000f70:	f44f 7270 	mov.w	r2, #960	; 0x3c0
 8000f74:	2302      	movs	r3, #2
 8000f76:	e9cd 2303 	strd	r2, r3, [sp, #12]
 8000f7a:	9307      	str	r3, [sp, #28]
 8000f7c:	a903      	add	r1, sp, #12
 8000f7e:	e7e3      	b.n	8000f48 <HAL_TIM_MspPostInit+0x40>
 8000f80:	40023800 	.word	0x40023800
 8000f84:	40020000 	.word	0x40020000
 8000f88:	40000800 	.word	0x40000800
 8000f8c:	40020400 	.word	0x40020400

08000f90 <HAL_UART_MspInit>:
 8000f90:	b510      	push	{r4, lr}
 8000f92:	4604      	mov	r4, r0
 8000f94:	b088      	sub	sp, #32
 8000f96:	2214      	movs	r2, #20
 8000f98:	2100      	movs	r1, #0
 8000f9a:	a803      	add	r0, sp, #12
 8000f9c:	f002 f906 	bl	80031ac <memset>
 8000fa0:	6822      	ldr	r2, [r4, #0]
 8000fa2:	4b14      	ldr	r3, [pc, #80]	; (8000ff4 <HAL_UART_MspInit+0x64>)
 8000fa4:	429a      	cmp	r2, r3
 8000fa6:	d123      	bne.n	8000ff0 <HAL_UART_MspInit+0x60>
 8000fa8:	f503 3394 	add.w	r3, r3, #75776	; 0x12800
 8000fac:	2100      	movs	r1, #0
 8000fae:	9101      	str	r1, [sp, #4]
 8000fb0:	6c5a      	ldr	r2, [r3, #68]	; 0x44
 8000fb2:	4811      	ldr	r0, [pc, #68]	; (8000ff8 <HAL_UART_MspInit+0x68>)
 8000fb4:	f042 0210 	orr.w	r2, r2, #16
 8000fb8:	645a      	str	r2, [r3, #68]	; 0x44
 8000fba:	6c5a      	ldr	r2, [r3, #68]	; 0x44
 8000fbc:	f002 0210 	and.w	r2, r2, #16
 8000fc0:	9201      	str	r2, [sp, #4]
 8000fc2:	9a01      	ldr	r2, [sp, #4]
 8000fc4:	9102      	str	r1, [sp, #8]
 8000fc6:	6b1a      	ldr	r2, [r3, #48]	; 0x30
 8000fc8:	f042 0201 	orr.w	r2, r2, #1
 8000fcc:	631a      	str	r2, [r3, #48]	; 0x30
 8000fce:	6b1b      	ldr	r3, [r3, #48]	; 0x30
 8000fd0:	f003 0301 	and.w	r3, r3, #1
 8000fd4:	9302      	str	r3, [sp, #8]
 8000fd6:	9b02      	ldr	r3, [sp, #8]
 8000fd8:	f44f 62c0 	mov.w	r2, #1536	; 0x600
 8000fdc:	2302      	movs	r3, #2
 8000fde:	2103      	movs	r1, #3
 8000fe0:	e9cd 2303 	strd	r2, r3, [sp, #12]
 8000fe4:	2307      	movs	r3, #7
 8000fe6:	e9cd 1306 	strd	r1, r3, [sp, #24]
 8000fea:	a903      	add	r1, sp, #12
 8000fec:	f000 fcb6 	bl	800195c <HAL_GPIO_Init>
 8000ff0:	b008      	add	sp, #32
 8000ff2:	bd10      	pop	{r4, pc}
 8000ff4:	40011000 	.word	0x40011000
 8000ff8:	40020000 	.word	0x40020000

08000ffc <NMI_Handler>:
 8000ffc:	b508      	push	{r3, lr}
 8000ffe:	f001 f823 	bl	8002048 <HAL_RCC_NMI_IRQHandler>
 8001002:	e7fe      	b.n	8001002 <NMI_Handler+0x6>

08001004 <HardFault_Handler>:
 8001004:	e7fe      	b.n	8001004 <HardFault_Handler>

08001006 <MemManage_Handler>:
 8001006:	e7fe      	b.n	8001006 <MemManage_Handler>

08001008 <BusFault_Handler>:
 8001008:	e7fe      	b.n	8001008 <BusFault_Handler>

0800100a <UsageFault_Handler>:
 800100a:	e7fe      	b.n	800100a <UsageFault_Handler>

0800100c <SVC_Handler>:
 800100c:	4770      	bx	lr

0800100e <DebugMon_Handler>:
 800100e:	4770      	bx	lr

08001010 <PendSV_Handler>:
 8001010:	4770      	bx	lr

08001012 <SysTick_Handler>:
 8001012:	f000 b8c7 	b.w	80011a4 <HAL_IncTick>
	...

08001018 <TIM8_TRG_COM_TIM14_IRQHandler>:
 8001018:	4801      	ldr	r0, [pc, #4]	; (8001020 <TIM8_TRG_COM_TIM14_IRQHandler+0x8>)
 800101a:	f001 b969 	b.w	80022f0 <HAL_TIM_IRQHandler>
 800101e:	bf00      	nop
 8001020:	200001e0 	.word	0x200001e0

08001024 <DMA2_Stream0_IRQHandler>:
 8001024:	4801      	ldr	r0, [pc, #4]	; (800102c <DMA2_Stream0_IRQHandler+0x8>)
 8001026:	f000 bbdb 	b.w	80017e0 <HAL_DMA_IRQHandler>
 800102a:	bf00      	nop
 800102c:	200000d0 	.word	0x200000d0

08001030 <_read>:
 8001030:	b570      	push	{r4, r5, r6, lr}
 8001032:	460d      	mov	r5, r1
 8001034:	4614      	mov	r4, r2
 8001036:	460e      	mov	r6, r1
 8001038:	1b73      	subs	r3, r6, r5
 800103a:	429c      	cmp	r4, r3
 800103c:	dc01      	bgt.n	8001042 <_read+0x12>
 800103e:	4620      	mov	r0, r4
 8001040:	bd70      	pop	{r4, r5, r6, pc}
 8001042:	f3af 8000 	nop.w
 8001046:	f806 0b01 	strb.w	r0, [r6], #1
 800104a:	e7f5      	b.n	8001038 <_read+0x8>

0800104c <_write>:
 800104c:	b570      	push	{r4, r5, r6, lr}
 800104e:	460d      	mov	r5, r1
 8001050:	4614      	mov	r4, r2
 8001052:	460e      	mov	r6, r1
 8001054:	1b73      	subs	r3, r6, r5
 8001056:	429c      	cmp	r4, r3
 8001058:	dc01      	bgt.n	800105e <_write+0x12>
 800105a:	4620      	mov	r0, r4
 800105c:	bd70      	pop	{r4, r5, r6, pc}
 800105e:	f816 0b01 	ldrb.w	r0, [r6], #1
 8001062:	f3af 8000 	nop.w
 8001066:	e7f5      	b.n	8001054 <_write+0x8>

08001068 <_close>:
 8001068:	f04f 30ff 	mov.w	r0, #4294967295
 800106c:	4770      	bx	lr

0800106e <_fstat>:
 800106e:	f44f 5300 	mov.w	r3, #8192	; 0x2000
 8001072:	604b      	str	r3, [r1, #4]
 8001074:	2000      	movs	r0, #0
 8001076:	4770      	bx	lr

08001078 <_isatty>:
 8001078:	2001      	movs	r0, #1
 800107a:	4770      	bx	lr

0800107c <_lseek>:
 800107c:	2000      	movs	r0, #0
 800107e:	4770      	bx	lr

08001080 <_sbrk>:
 8001080:	4a0b      	ldr	r2, [pc, #44]	; (80010b0 <_sbrk+0x30>)
 8001082:	6811      	ldr	r1, [r2, #0]
 8001084:	b510      	push	{r4, lr}
 8001086:	4603      	mov	r3, r0
 8001088:	b909      	cbnz	r1, 800108e <_sbrk+0xe>
 800108a:	490a      	ldr	r1, [pc, #40]	; (80010b4 <_sbrk+0x34>)
 800108c:	6011      	str	r1, [r2, #0]
 800108e:	6810      	ldr	r0, [r2, #0]
 8001090:	4909      	ldr	r1, [pc, #36]	; (80010b8 <_sbrk+0x38>)
 8001092:	4c0a      	ldr	r4, [pc, #40]	; (80010bc <_sbrk+0x3c>)
 8001094:	4403      	add	r3, r0
 8001096:	1b09      	subs	r1, r1, r4
 8001098:	428b      	cmp	r3, r1
 800109a:	d906      	bls.n	80010aa <_sbrk+0x2a>
 800109c:	f002 f8e4 	bl	8003268 <__errno>
 80010a0:	230c      	movs	r3, #12
 80010a2:	6003      	str	r3, [r0, #0]
 80010a4:	f04f 30ff 	mov.w	r0, #4294967295
 80010a8:	bd10      	pop	{r4, pc}
 80010aa:	6013      	str	r3, [r2, #0]
 80010ac:	e7fc      	b.n	80010a8 <_sbrk+0x28>
 80010ae:	bf00      	nop
 80010b0:	20000390 	.word	0x20000390
 80010b4:	200004e8 	.word	0x200004e8
 80010b8:	20020000 	.word	0x20020000
 80010bc:	00000400 	.word	0x00000400

080010c0 <SystemInit>:
 80010c0:	4a03      	ldr	r2, [pc, #12]	; (80010d0 <SystemInit+0x10>)
 80010c2:	f8d2 3088 	ldr.w	r3, [r2, #136]	; 0x88
 80010c6:	f443 0370 	orr.w	r3, r3, #15728640	; 0xf00000
 80010ca:	f8c2 3088 	str.w	r3, [r2, #136]	; 0x88
 80010ce:	4770      	bx	lr
 80010d0:	e000ed00 	.word	0xe000ed00

080010d4 <Reset_Handler>:
 80010d4:	f8df d034 	ldr.w	sp, [pc, #52]	; 800110c <LoopFillZerobss+0x12>
 80010d8:	480d      	ldr	r0, [pc, #52]	; (8001110 <LoopFillZerobss+0x16>)
 80010da:	490e      	ldr	r1, [pc, #56]	; (8001114 <LoopFillZerobss+0x1a>)
 80010dc:	4a0e      	ldr	r2, [pc, #56]	; (8001118 <LoopFillZerobss+0x1e>)
 80010de:	2300      	movs	r3, #0
 80010e0:	e002      	b.n	80010e8 <LoopCopyDataInit>

080010e2 <CopyDataInit>:
 80010e2:	58d4      	ldr	r4, [r2, r3]
 80010e4:	50c4      	str	r4, [r0, r3]
 80010e6:	3304      	adds	r3, #4

080010e8 <LoopCopyDataInit>:
 80010e8:	18c4      	adds	r4, r0, r3
 80010ea:	428c      	cmp	r4, r1
 80010ec:	d3f9      	bcc.n	80010e2 <CopyDataInit>
 80010ee:	4a0b      	ldr	r2, [pc, #44]	; (800111c <LoopFillZerobss+0x22>)
 80010f0:	4c0b      	ldr	r4, [pc, #44]	; (8001120 <LoopFillZerobss+0x26>)
 80010f2:	2300      	movs	r3, #0
 80010f4:	e001      	b.n	80010fa <LoopFillZerobss>

080010f6 <FillZerobss>:
 80010f6:	6013      	str	r3, [r2, #0]
 80010f8:	3204      	adds	r2, #4

080010fa <LoopFillZerobss>:
 80010fa:	42a2      	cmp	r2, r4
 80010fc:	d3fb      	bcc.n	80010f6 <FillZerobss>
 80010fe:	f7ff ffdf 	bl	80010c0 <SystemInit>
 8001102:	f002 f8b7 	bl	8003274 <__libc_init_array>
 8001106:	f7ff fa75 	bl	80005f4 <main>
 800110a:	4770      	bx	lr
 800110c:	20020000 	.word	0x20020000
 8001110:	20000000 	.word	0x20000000
 8001114:	2000006c 	.word	0x2000006c
 8001118:	08003bfc 	.word	0x08003bfc
 800111c:	2000006c 	.word	0x2000006c
 8001120:	200004e4 	.word	0x200004e4

08001124 <ADC_IRQHandler>:
 8001124:	e7fe      	b.n	8001124 <ADC_IRQHandler>
	...

08001128 <HAL_InitTick>:
 8001128:	b538      	push	{r3, r4, r5, lr}
 800112a:	4b0e      	ldr	r3, [pc, #56]	; (8001164 <HAL_InitTick+0x3c>)
 800112c:	781a      	ldrb	r2, [r3, #0]
 800112e:	f44f 737a 	mov.w	r3, #1000	; 0x3e8
 8001132:	fbb3 f3f2 	udiv	r3, r3, r2
 8001136:	4a0c      	ldr	r2, [pc, #48]	; (8001168 <HAL_InitTick+0x40>)
 8001138:	4605      	mov	r5, r0
 800113a:	6810      	ldr	r0, [r2, #0]
 800113c:	fbb0 f0f3 	udiv	r0, r0, r3
 8001140:	f000 faa6 	bl	8001690 <HAL_SYSTICK_Config>
 8001144:	4604      	mov	r4, r0
 8001146:	b958      	cbnz	r0, 8001160 <HAL_InitTick+0x38>
 8001148:	2d0f      	cmp	r5, #15
 800114a:	d809      	bhi.n	8001160 <HAL_InitTick+0x38>
 800114c:	4602      	mov	r2, r0
 800114e:	4629      	mov	r1, r5
 8001150:	f04f 30ff 	mov.w	r0, #4294967295
 8001154:	f000 fa5c 	bl	8001610 <HAL_NVIC_SetPriority>
 8001158:	4b04      	ldr	r3, [pc, #16]	; (800116c <HAL_InitTick+0x44>)
 800115a:	4620      	mov	r0, r4
 800115c:	601d      	str	r5, [r3, #0]
 800115e:	bd38      	pop	{r3, r4, r5, pc}
 8001160:	2001      	movs	r0, #1
 8001162:	e7fc      	b.n	800115e <HAL_InitTick+0x36>
 8001164:	20000004 	.word	0x20000004
 8001168:	20000000 	.word	0x20000000
 800116c:	20000008 	.word	0x20000008

08001170 <HAL_Init>:
 8001170:	b508      	push	{r3, lr}
 8001172:	4b0b      	ldr	r3, [pc, #44]	; (80011a0 <HAL_Init+0x30>)
 8001174:	681a      	ldr	r2, [r3, #0]
 8001176:	f442 7200 	orr.w	r2, r2, #512	; 0x200
 800117a:	601a      	str	r2, [r3, #0]
 800117c:	681a      	ldr	r2, [r3, #0]
 800117e:	f442 6280 	orr.w	r2, r2, #1024	; 0x400
 8001182:	601a      	str	r2, [r3, #0]
 8001184:	681a      	ldr	r2, [r3, #0]
 8001186:	f442 7280 	orr.w	r2, r2, #256	; 0x100
 800118a:	601a      	str	r2, [r3, #0]
 800118c:	2003      	movs	r0, #3
 800118e:	f000 fa2d 	bl	80015ec <HAL_NVIC_SetPriorityGrouping>
 8001192:	200f      	movs	r0, #15
 8001194:	f7ff ffc8 	bl	8001128 <HAL_InitTick>
 8001198:	f7ff fd02 	bl	8000ba0 <HAL_MspInit>
 800119c:	2000      	movs	r0, #0
 800119e:	bd08      	pop	{r3, pc}
 80011a0:	40023c00 	.word	0x40023c00

080011a4 <HAL_IncTick>:
 80011a4:	4a03      	ldr	r2, [pc, #12]	; (80011b4 <HAL_IncTick+0x10>)
 80011a6:	4b04      	ldr	r3, [pc, #16]	; (80011b8 <HAL_IncTick+0x14>)
 80011a8:	6811      	ldr	r1, [r2, #0]
 80011aa:	781b      	ldrb	r3, [r3, #0]
 80011ac:	440b      	add	r3, r1
 80011ae:	6013      	str	r3, [r2, #0]
 80011b0:	4770      	bx	lr
 80011b2:	bf00      	nop
 80011b4:	20000394 	.word	0x20000394
 80011b8:	20000004 	.word	0x20000004

080011bc <HAL_GetTick>:
 80011bc:	4b01      	ldr	r3, [pc, #4]	; (80011c4 <HAL_GetTick+0x8>)
 80011be:	6818      	ldr	r0, [r3, #0]
 80011c0:	4770      	bx	lr
 80011c2:	bf00      	nop
 80011c4:	20000394 	.word	0x20000394

080011c8 <HAL_Delay>:
 80011c8:	b538      	push	{r3, r4, r5, lr}
 80011ca:	4604      	mov	r4, r0
 80011cc:	f7ff fff6 	bl	80011bc <HAL_GetTick>
 80011d0:	1c63      	adds	r3, r4, #1
 80011d2:	bf1c      	itt	ne
 80011d4:	4b05      	ldrne	r3, [pc, #20]	; (80011ec <HAL_Delay+0x24>)
 80011d6:	781b      	ldrbne	r3, [r3, #0]
 80011d8:	4605      	mov	r5, r0
 80011da:	bf18      	it	ne
 80011dc:	18e4      	addne	r4, r4, r3
 80011de:	f7ff ffed 	bl	80011bc <HAL_GetTick>
 80011e2:	1b43      	subs	r3, r0, r5
 80011e4:	42a3      	cmp	r3, r4
 80011e6:	d3fa      	bcc.n	80011de <HAL_Delay+0x16>
 80011e8:	bd38      	pop	{r3, r4, r5, pc}
 80011ea:	bf00      	nop
 80011ec:	20000004 	.word	0x20000004

080011f0 <HAL_ADC_Init>:
 80011f0:	b538      	push	{r3, r4, r5, lr}
 80011f2:	4604      	mov	r4, r0
 80011f4:	2800      	cmp	r0, #0
 80011f6:	f000 809b 	beq.w	8001330 <HAL_ADC_Init+0x140>
 80011fa:	6c05      	ldr	r5, [r0, #64]	; 0x40
 80011fc:	b925      	cbnz	r5, 8001208 <HAL_ADC_Init+0x18>
 80011fe:	f7ff fceb 	bl	8000bd8 <HAL_ADC_MspInit>
 8001202:	6465      	str	r5, [r4, #68]	; 0x44
 8001204:	f884 503c 	strb.w	r5, [r4, #60]	; 0x3c
 8001208:	6c23      	ldr	r3, [r4, #64]	; 0x40
 800120a:	06db      	lsls	r3, r3, #27
 800120c:	f100 808e 	bmi.w	800132c <HAL_ADC_Init+0x13c>
 8001210:	6c23      	ldr	r3, [r4, #64]	; 0x40
 8001212:	f423 5388 	bic.w	r3, r3, #4352	; 0x1100
 8001216:	f023 0302 	bic.w	r3, r3, #2
 800121a:	f043 0302 	orr.w	r3, r3, #2
 800121e:	6423      	str	r3, [r4, #64]	; 0x40
 8001220:	4b44      	ldr	r3, [pc, #272]	; (8001334 <HAL_ADC_Init+0x144>)
 8001222:	685a      	ldr	r2, [r3, #4]
 8001224:	f422 3240 	bic.w	r2, r2, #196608	; 0x30000
 8001228:	605a      	str	r2, [r3, #4]
 800122a:	685a      	ldr	r2, [r3, #4]
 800122c:	6861      	ldr	r1, [r4, #4]
 800122e:	430a      	orrs	r2, r1
 8001230:	605a      	str	r2, [r3, #4]
 8001232:	6823      	ldr	r3, [r4, #0]
 8001234:	6921      	ldr	r1, [r4, #16]
 8001236:	685a      	ldr	r2, [r3, #4]
 8001238:	f422 7280 	bic.w	r2, r2, #256	; 0x100
 800123c:	605a      	str	r2, [r3, #4]
 800123e:	685a      	ldr	r2, [r3, #4]
 8001240:	ea42 2201 	orr.w	r2, r2, r1, lsl #8
 8001244:	605a      	str	r2, [r3, #4]
 8001246:	685a      	ldr	r2, [r3, #4]
 8001248:	68a1      	ldr	r1, [r4, #8]
 800124a:	f022 7240 	bic.w	r2, r2, #50331648	; 0x3000000
 800124e:	605a      	str	r2, [r3, #4]
 8001250:	685a      	ldr	r2, [r3, #4]
 8001252:	430a      	orrs	r2, r1
 8001254:	605a      	str	r2, [r3, #4]
 8001256:	689a      	ldr	r2, [r3, #8]
 8001258:	68e1      	ldr	r1, [r4, #12]
 800125a:	f422 6200 	bic.w	r2, r2, #2048	; 0x800
 800125e:	609a      	str	r2, [r3, #8]
 8001260:	689a      	ldr	r2, [r3, #8]
 8001262:	430a      	orrs	r2, r1
 8001264:	609a      	str	r2, [r3, #8]
 8001266:	4934      	ldr	r1, [pc, #208]	; (8001338 <HAL_ADC_Init+0x148>)
 8001268:	6aa2      	ldr	r2, [r4, #40]	; 0x28
 800126a:	428a      	cmp	r2, r1
 800126c:	d052      	beq.n	8001314 <HAL_ADC_Init+0x124>
 800126e:	6899      	ldr	r1, [r3, #8]
 8001270:	f021 6170 	bic.w	r1, r1, #251658240	; 0xf000000
 8001274:	6099      	str	r1, [r3, #8]
 8001276:	6899      	ldr	r1, [r3, #8]
 8001278:	430a      	orrs	r2, r1
 800127a:	609a      	str	r2, [r3, #8]
 800127c:	689a      	ldr	r2, [r3, #8]
 800127e:	6ae1      	ldr	r1, [r4, #44]	; 0x2c
 8001280:	f022 5240 	bic.w	r2, r2, #805306368	; 0x30000000
 8001284:	609a      	str	r2, [r3, #8]
 8001286:	689a      	ldr	r2, [r3, #8]
 8001288:	430a      	orrs	r2, r1
 800128a:	609a      	str	r2, [r3, #8]
 800128c:	689a      	ldr	r2, [r3, #8]
 800128e:	f022 0202 	bic.w	r2, r2, #2
 8001292:	609a      	str	r2, [r3, #8]
 8001294:	689a      	ldr	r2, [r3, #8]
 8001296:	7e21      	ldrb	r1, [r4, #24]
 8001298:	ea42 0241 	orr.w	r2, r2, r1, lsl #1
 800129c:	609a      	str	r2, [r3, #8]
 800129e:	f894 2020 	ldrb.w	r2, [r4, #32]
 80012a2:	2a00      	cmp	r2, #0
 80012a4:	d03e      	beq.n	8001324 <HAL_ADC_Init+0x134>
 80012a6:	685a      	ldr	r2, [r3, #4]
 80012a8:	6a61      	ldr	r1, [r4, #36]	; 0x24
 80012aa:	f442 6200 	orr.w	r2, r2, #2048	; 0x800
 80012ae:	605a      	str	r2, [r3, #4]
 80012b0:	685a      	ldr	r2, [r3, #4]
 80012b2:	f422 4260 	bic.w	r2, r2, #57344	; 0xe000
 80012b6:	605a      	str	r2, [r3, #4]
 80012b8:	685a      	ldr	r2, [r3, #4]
 80012ba:	3901      	subs	r1, #1
 80012bc:	ea42 3241 	orr.w	r2, r2, r1, lsl #13
 80012c0:	605a      	str	r2, [r3, #4]
 80012c2:	6ada      	ldr	r2, [r3, #44]	; 0x2c
 80012c4:	69e1      	ldr	r1, [r4, #28]
 80012c6:	f422 0270 	bic.w	r2, r2, #15728640	; 0xf00000
 80012ca:	62da      	str	r2, [r3, #44]	; 0x2c
 80012cc:	6ada      	ldr	r2, [r3, #44]	; 0x2c
 80012ce:	3901      	subs	r1, #1
 80012d0:	ea42 5201 	orr.w	r2, r2, r1, lsl #20
 80012d4:	62da      	str	r2, [r3, #44]	; 0x2c
 80012d6:	689a      	ldr	r2, [r3, #8]
 80012d8:	f422 7200 	bic.w	r2, r2, #512	; 0x200
 80012dc:	609a      	str	r2, [r3, #8]
 80012de:	689a      	ldr	r2, [r3, #8]
 80012e0:	f894 1030 	ldrb.w	r1, [r4, #48]	; 0x30
 80012e4:	ea42 2241 	orr.w	r2, r2, r1, lsl #9
 80012e8:	609a      	str	r2, [r3, #8]
 80012ea:	689a      	ldr	r2, [r3, #8]
 80012ec:	6961      	ldr	r1, [r4, #20]
 80012ee:	f422 6280 	bic.w	r2, r2, #1024	; 0x400
 80012f2:	609a      	str	r2, [r3, #8]
 80012f4:	689a      	ldr	r2, [r3, #8]
 80012f6:	2000      	movs	r0, #0
 80012f8:	ea42 2281 	orr.w	r2, r2, r1, lsl #10
 80012fc:	609a      	str	r2, [r3, #8]
 80012fe:	6460      	str	r0, [r4, #68]	; 0x44
 8001300:	6c23      	ldr	r3, [r4, #64]	; 0x40
 8001302:	f023 0303 	bic.w	r3, r3, #3
 8001306:	f043 0301 	orr.w	r3, r3, #1
 800130a:	6423      	str	r3, [r4, #64]	; 0x40
 800130c:	2300      	movs	r3, #0
 800130e:	f884 303c 	strb.w	r3, [r4, #60]	; 0x3c
 8001312:	bd38      	pop	{r3, r4, r5, pc}
 8001314:	689a      	ldr	r2, [r3, #8]
 8001316:	f022 6270 	bic.w	r2, r2, #251658240	; 0xf000000
 800131a:	609a      	str	r2, [r3, #8]
 800131c:	689a      	ldr	r2, [r3, #8]
 800131e:	f022 5240 	bic.w	r2, r2, #805306368	; 0x30000000
 8001322:	e7b2      	b.n	800128a <HAL_ADC_Init+0x9a>
 8001324:	685a      	ldr	r2, [r3, #4]
 8001326:	f422 6200 	bic.w	r2, r2, #2048	; 0x800
 800132a:	e7c9      	b.n	80012c0 <HAL_ADC_Init+0xd0>
 800132c:	2001      	movs	r0, #1
 800132e:	e7ed      	b.n	800130c <HAL_ADC_Init+0x11c>
 8001330:	2001      	movs	r0, #1
 8001332:	e7ee      	b.n	8001312 <HAL_ADC_Init+0x122>
 8001334:	40012300 	.word	0x40012300
 8001338:	0f000001 	.word	0x0f000001

0800133c <HAL_ADC_ConfigChannel>:
 800133c:	b5f7      	push	{r0, r1, r2, r4, r5, r6, r7, lr}
 800133e:	2300      	movs	r3, #0
 8001340:	9301      	str	r3, [sp, #4]
 8001342:	f890 303c 	ldrb.w	r3, [r0, #60]	; 0x3c
 8001346:	2b01      	cmp	r3, #1
 8001348:	d064      	beq.n	8001414 <HAL_ADC_ConfigChannel+0xd8>
 800134a:	2301      	movs	r3, #1
 800134c:	f880 303c 	strb.w	r3, [r0, #60]	; 0x3c
 8001350:	680d      	ldr	r5, [r1, #0]
 8001352:	6803      	ldr	r3, [r0, #0]
 8001354:	688e      	ldr	r6, [r1, #8]
 8001356:	2d09      	cmp	r5, #9
 8001358:	b2ac      	uxth	r4, r5
 800135a:	d931      	bls.n	80013c0 <HAL_ADC_ConfigChannel+0x84>
 800135c:	eb04 0244 	add.w	r2, r4, r4, lsl #1
 8001360:	68df      	ldr	r7, [r3, #12]
 8001362:	3a1e      	subs	r2, #30
 8001364:	f04f 0c07 	mov.w	ip, #7
 8001368:	fa0c fc02 	lsl.w	ip, ip, r2
 800136c:	ea27 070c 	bic.w	r7, r7, ip
 8001370:	60df      	str	r7, [r3, #12]
 8001372:	68df      	ldr	r7, [r3, #12]
 8001374:	fa06 f202 	lsl.w	r2, r6, r2
 8001378:	433a      	orrs	r2, r7
 800137a:	60da      	str	r2, [r3, #12]
 800137c:	6849      	ldr	r1, [r1, #4]
 800137e:	2906      	cmp	r1, #6
 8001380:	eb01 0281 	add.w	r2, r1, r1, lsl #2
 8001384:	d82b      	bhi.n	80013de <HAL_ADC_ConfigChannel+0xa2>
 8001386:	6b59      	ldr	r1, [r3, #52]	; 0x34
 8001388:	3a05      	subs	r2, #5
 800138a:	261f      	movs	r6, #31
 800138c:	4096      	lsls	r6, r2
 800138e:	ea21 0106 	bic.w	r1, r1, r6
 8001392:	6359      	str	r1, [r3, #52]	; 0x34
 8001394:	6b59      	ldr	r1, [r3, #52]	; 0x34
 8001396:	fa04 f202 	lsl.w	r2, r4, r2
 800139a:	430a      	orrs	r2, r1
 800139c:	635a      	str	r2, [r3, #52]	; 0x34
 800139e:	4a2b      	ldr	r2, [pc, #172]	; (800144c <HAL_ADC_ConfigChannel+0x110>)
 80013a0:	4293      	cmp	r3, r2
 80013a2:	d107      	bne.n	80013b4 <HAL_ADC_ConfigChannel+0x78>
 80013a4:	2d12      	cmp	r5, #18
 80013a6:	d137      	bne.n	8001418 <HAL_ADC_ConfigChannel+0xdc>
 80013a8:	f8d2 3304 	ldr.w	r3, [r2, #772]	; 0x304
 80013ac:	f443 0380 	orr.w	r3, r3, #4194304	; 0x400000
 80013b0:	f8c2 3304 	str.w	r3, [r2, #772]	; 0x304
 80013b4:	2300      	movs	r3, #0
 80013b6:	f880 303c 	strb.w	r3, [r0, #60]	; 0x3c
 80013ba:	4618      	mov	r0, r3
 80013bc:	b003      	add	sp, #12
 80013be:	bdf0      	pop	{r4, r5, r6, r7, pc}
 80013c0:	691a      	ldr	r2, [r3, #16]
 80013c2:	eb05 0c45 	add.w	ip, r5, r5, lsl #1
 80013c6:	2707      	movs	r7, #7
 80013c8:	fa07 f70c 	lsl.w	r7, r7, ip
 80013cc:	ea22 0207 	bic.w	r2, r2, r7
 80013d0:	611a      	str	r2, [r3, #16]
 80013d2:	691a      	ldr	r2, [r3, #16]
 80013d4:	fa06 f60c 	lsl.w	r6, r6, ip
 80013d8:	4316      	orrs	r6, r2
 80013da:	611e      	str	r6, [r3, #16]
 80013dc:	e7ce      	b.n	800137c <HAL_ADC_ConfigChannel+0x40>
 80013de:	290c      	cmp	r1, #12
 80013e0:	f04f 011f 	mov.w	r1, #31
 80013e4:	d80b      	bhi.n	80013fe <HAL_ADC_ConfigChannel+0xc2>
 80013e6:	6b1e      	ldr	r6, [r3, #48]	; 0x30
 80013e8:	3a23      	subs	r2, #35	; 0x23
 80013ea:	4091      	lsls	r1, r2
 80013ec:	ea26 0101 	bic.w	r1, r6, r1
 80013f0:	6319      	str	r1, [r3, #48]	; 0x30
 80013f2:	6b19      	ldr	r1, [r3, #48]	; 0x30
 80013f4:	fa04 f202 	lsl.w	r2, r4, r2
 80013f8:	430a      	orrs	r2, r1
 80013fa:	631a      	str	r2, [r3, #48]	; 0x30
 80013fc:	e7cf      	b.n	800139e <HAL_ADC_ConfigChannel+0x62>
 80013fe:	6ade      	ldr	r6, [r3, #44]	; 0x2c
 8001400:	3a41      	subs	r2, #65	; 0x41
 8001402:	4091      	lsls	r1, r2
 8001404:	ea26 0101 	bic.w	r1, r6, r1
 8001408:	62d9      	str	r1, [r3, #44]	; 0x2c
 800140a:	6ad9      	ldr	r1, [r3, #44]	; 0x2c
 800140c:	4094      	lsls	r4, r2
 800140e:	430c      	orrs	r4, r1
 8001410:	62dc      	str	r4, [r3, #44]	; 0x2c
 8001412:	e7c4      	b.n	800139e <HAL_ADC_ConfigChannel+0x62>
 8001414:	2002      	movs	r0, #2
 8001416:	e7d1      	b.n	80013bc <HAL_ADC_ConfigChannel+0x80>
 8001418:	f1a5 0310 	sub.w	r3, r5, #16
 800141c:	2b01      	cmp	r3, #1
 800141e:	d8c9      	bhi.n	80013b4 <HAL_ADC_ConfigChannel+0x78>
 8001420:	4a0b      	ldr	r2, [pc, #44]	; (8001450 <HAL_ADC_ConfigChannel+0x114>)
 8001422:	6853      	ldr	r3, [r2, #4]
 8001424:	2d10      	cmp	r5, #16
 8001426:	f443 0300 	orr.w	r3, r3, #8388608	; 0x800000
 800142a:	6053      	str	r3, [r2, #4]
 800142c:	d1c2      	bne.n	80013b4 <HAL_ADC_ConfigChannel+0x78>
 800142e:	4b09      	ldr	r3, [pc, #36]	; (8001454 <HAL_ADC_ConfigChannel+0x118>)
 8001430:	4a09      	ldr	r2, [pc, #36]	; (8001458 <HAL_ADC_ConfigChannel+0x11c>)
 8001432:	681b      	ldr	r3, [r3, #0]
 8001434:	fbb3 f3f2 	udiv	r3, r3, r2
 8001438:	220a      	movs	r2, #10
 800143a:	4353      	muls	r3, r2
 800143c:	9301      	str	r3, [sp, #4]
 800143e:	9b01      	ldr	r3, [sp, #4]
 8001440:	2b00      	cmp	r3, #0
 8001442:	d0b7      	beq.n	80013b4 <HAL_ADC_ConfigChannel+0x78>
 8001444:	9b01      	ldr	r3, [sp, #4]
 8001446:	3b01      	subs	r3, #1
 8001448:	e7f8      	b.n	800143c <HAL_ADC_ConfigChannel+0x100>
 800144a:	bf00      	nop
 800144c:	40012000 	.word	0x40012000
 8001450:	40012300 	.word	0x40012300
 8001454:	20000000 	.word	0x20000000
 8001458:	000f4240 	.word	0x000f4240

0800145c <HAL_ADCEx_InjectedConfigChannel>:
 800145c:	b5f0      	push	{r4, r5, r6, r7, lr}
 800145e:	f890 303c 	ldrb.w	r3, [r0, #60]	; 0x3c
 8001462:	698e      	ldr	r6, [r1, #24]
 8001464:	2b01      	cmp	r3, #1
 8001466:	f000 80ae 	beq.w	80015c6 <HAL_ADCEx_InjectedConfigChannel+0x16a>
 800146a:	2301      	movs	r3, #1
 800146c:	f880 303c 	strb.w	r3, [r0, #60]	; 0x3c
 8001470:	680c      	ldr	r4, [r1, #0]
 8001472:	6803      	ldr	r3, [r0, #0]
 8001474:	688f      	ldr	r7, [r1, #8]
 8001476:	2c09      	cmp	r4, #9
 8001478:	b2a5      	uxth	r5, r4
 800147a:	d974      	bls.n	8001566 <HAL_ADCEx_InjectedConfigChannel+0x10a>
 800147c:	eb05 0245 	add.w	r2, r5, r5, lsl #1
 8001480:	f8d3 c00c 	ldr.w	ip, [r3, #12]
 8001484:	3a1e      	subs	r2, #30
 8001486:	f04f 0e07 	mov.w	lr, #7
 800148a:	fa0e fe02 	lsl.w	lr, lr, r2
 800148e:	ea2c 0c0e 	bic.w	ip, ip, lr
 8001492:	f8c3 c00c 	str.w	ip, [r3, #12]
 8001496:	f8d3 c00c 	ldr.w	ip, [r3, #12]
 800149a:	fa07 f202 	lsl.w	r2, r7, r2
 800149e:	ea42 020c 	orr.w	r2, r2, ip
 80014a2:	60da      	str	r2, [r3, #12]
 80014a4:	6b9a      	ldr	r2, [r3, #56]	; 0x38
 80014a6:	f8d1 e010 	ldr.w	lr, [r1, #16]
 80014aa:	f422 1240 	bic.w	r2, r2, #3145728	; 0x300000
 80014ae:	639a      	str	r2, [r3, #56]	; 0x38
 80014b0:	6b9a      	ldr	r2, [r3, #56]	; 0x38
 80014b2:	f10e 37ff 	add.w	r7, lr, #4294967295
 80014b6:	ea42 5207 	orr.w	r2, r2, r7, lsl #20
 80014ba:	684f      	ldr	r7, [r1, #4]
 80014bc:	639a      	str	r2, [r3, #56]	; 0x38
 80014be:	1cfa      	adds	r2, r7, #3
 80014c0:	eba2 020e 	sub.w	r2, r2, lr
 80014c4:	b2d2      	uxtb	r2, r2
 80014c6:	f8d3 c038 	ldr.w	ip, [r3, #56]	; 0x38
 80014ca:	eb02 0282 	add.w	r2, r2, r2, lsl #2
 80014ce:	f04f 0e1f 	mov.w	lr, #31
 80014d2:	fa0e fe02 	lsl.w	lr, lr, r2
 80014d6:	ea2c 0c0e 	bic.w	ip, ip, lr
 80014da:	f8c3 c038 	str.w	ip, [r3, #56]	; 0x38
 80014de:	f8d3 c038 	ldr.w	ip, [r3, #56]	; 0x38
 80014e2:	4095      	lsls	r5, r2
 80014e4:	ea45 050c 	orr.w	r5, r5, ip
 80014e8:	4a3c      	ldr	r2, [pc, #240]	; (80015dc <HAL_ADCEx_InjectedConfigChannel+0x180>)
 80014ea:	639d      	str	r5, [r3, #56]	; 0x38
 80014ec:	4296      	cmp	r6, r2
 80014ee:	689a      	ldr	r2, [r3, #8]
 80014f0:	f422 2270 	bic.w	r2, r2, #983040	; 0xf0000
 80014f4:	609a      	str	r2, [r3, #8]
 80014f6:	689a      	ldr	r2, [r3, #8]
 80014f8:	d045      	beq.n	8001586 <HAL_ADCEx_InjectedConfigChannel+0x12a>
 80014fa:	4316      	orrs	r6, r2
 80014fc:	609e      	str	r6, [r3, #8]
 80014fe:	689a      	ldr	r2, [r3, #8]
 8001500:	69cd      	ldr	r5, [r1, #28]
 8001502:	f422 1240 	bic.w	r2, r2, #3145728	; 0x300000
 8001506:	609a      	str	r2, [r3, #8]
 8001508:	689a      	ldr	r2, [r3, #8]
 800150a:	432a      	orrs	r2, r5
 800150c:	609a      	str	r2, [r3, #8]
 800150e:	7d4a      	ldrb	r2, [r1, #21]
 8001510:	2a00      	cmp	r2, #0
 8001512:	d03b      	beq.n	800158c <HAL_ADCEx_InjectedConfigChannel+0x130>
 8001514:	685a      	ldr	r2, [r3, #4]
 8001516:	f442 6280 	orr.w	r2, r2, #1024	; 0x400
 800151a:	605a      	str	r2, [r3, #4]
 800151c:	7d0a      	ldrb	r2, [r1, #20]
 800151e:	2a00      	cmp	r2, #0
 8001520:	d038      	beq.n	8001594 <HAL_ADCEx_InjectedConfigChannel+0x138>
 8001522:	685a      	ldr	r2, [r3, #4]
 8001524:	f442 5280 	orr.w	r2, r2, #4096	; 0x1000
 8001528:	605a      	str	r2, [r3, #4]
 800152a:	2f02      	cmp	r7, #2
 800152c:	68ca      	ldr	r2, [r1, #12]
 800152e:	492c      	ldr	r1, [pc, #176]	; (80015e0 <HAL_ADCEx_InjectedConfigChannel+0x184>)
 8001530:	d034      	beq.n	800159c <HAL_ADCEx_InjectedConfigChannel+0x140>
 8001532:	2f03      	cmp	r7, #3
 8001534:	d039      	beq.n	80015aa <HAL_ADCEx_InjectedConfigChannel+0x14e>
 8001536:	2f01      	cmp	r7, #1
 8001538:	d13e      	bne.n	80015b8 <HAL_ADCEx_InjectedConfigChannel+0x15c>
 800153a:	695d      	ldr	r5, [r3, #20]
 800153c:	4029      	ands	r1, r5
 800153e:	6159      	str	r1, [r3, #20]
 8001540:	6959      	ldr	r1, [r3, #20]
 8001542:	430a      	orrs	r2, r1
 8001544:	615a      	str	r2, [r3, #20]
 8001546:	4a27      	ldr	r2, [pc, #156]	; (80015e4 <HAL_ADCEx_InjectedConfigChannel+0x188>)
 8001548:	4293      	cmp	r3, r2
 800154a:	d107      	bne.n	800155c <HAL_ADCEx_InjectedConfigChannel+0x100>
 800154c:	2c12      	cmp	r4, #18
 800154e:	d13c      	bne.n	80015ca <HAL_ADCEx_InjectedConfigChannel+0x16e>
 8001550:	f8d2 3304 	ldr.w	r3, [r2, #772]	; 0x304
 8001554:	f443 0380 	orr.w	r3, r3, #4194304	; 0x400000
 8001558:	f8c2 3304 	str.w	r3, [r2, #772]	; 0x304
 800155c:	2300      	movs	r3, #0
 800155e:	f880 303c 	strb.w	r3, [r0, #60]	; 0x3c
 8001562:	4618      	mov	r0, r3
 8001564:	bdf0      	pop	{r4, r5, r6, r7, pc}
 8001566:	691a      	ldr	r2, [r3, #16]
 8001568:	eb04 0e44 	add.w	lr, r4, r4, lsl #1
 800156c:	f04f 0c07 	mov.w	ip, #7
 8001570:	fa0c fc0e 	lsl.w	ip, ip, lr
 8001574:	ea22 020c 	bic.w	r2, r2, ip
 8001578:	611a      	str	r2, [r3, #16]
 800157a:	691a      	ldr	r2, [r3, #16]
 800157c:	fa07 f70e 	lsl.w	r7, r7, lr
 8001580:	4317      	orrs	r7, r2
 8001582:	611f      	str	r7, [r3, #16]
 8001584:	e78e      	b.n	80014a4 <HAL_ADCEx_InjectedConfigChannel+0x48>
 8001586:	f422 1240 	bic.w	r2, r2, #3145728	; 0x300000
 800158a:	e7bf      	b.n	800150c <HAL_ADCEx_InjectedConfigChannel+0xb0>
 800158c:	685a      	ldr	r2, [r3, #4]
 800158e:	f422 6280 	bic.w	r2, r2, #1024	; 0x400
 8001592:	e7c2      	b.n	800151a <HAL_ADCEx_InjectedConfigChannel+0xbe>
 8001594:	685a      	ldr	r2, [r3, #4]
 8001596:	f422 5280 	bic.w	r2, r2, #4096	; 0x1000
 800159a:	e7c5      	b.n	8001528 <HAL_ADCEx_InjectedConfigChannel+0xcc>
 800159c:	699d      	ldr	r5, [r3, #24]
 800159e:	4029      	ands	r1, r5
 80015a0:	6199      	str	r1, [r3, #24]
 80015a2:	6999      	ldr	r1, [r3, #24]
 80015a4:	430a      	orrs	r2, r1
 80015a6:	619a      	str	r2, [r3, #24]
 80015a8:	e7cd      	b.n	8001546 <HAL_ADCEx_InjectedConfigChannel+0xea>
 80015aa:	69dd      	ldr	r5, [r3, #28]
 80015ac:	4029      	ands	r1, r5
 80015ae:	61d9      	str	r1, [r3, #28]
 80015b0:	69d9      	ldr	r1, [r3, #28]
 80015b2:	430a      	orrs	r2, r1
 80015b4:	61da      	str	r2, [r3, #28]
 80015b6:	e7c6      	b.n	8001546 <HAL_ADCEx_InjectedConfigChannel+0xea>
 80015b8:	6a1d      	ldr	r5, [r3, #32]
 80015ba:	4029      	ands	r1, r5
 80015bc:	6219      	str	r1, [r3, #32]
 80015be:	6a19      	ldr	r1, [r3, #32]
 80015c0:	430a      	orrs	r2, r1
 80015c2:	621a      	str	r2, [r3, #32]
 80015c4:	e7bf      	b.n	8001546 <HAL_ADCEx_InjectedConfigChannel+0xea>
 80015c6:	2002      	movs	r0, #2
 80015c8:	e7cc      	b.n	8001564 <HAL_ADCEx_InjectedConfigChannel+0x108>
 80015ca:	3c10      	subs	r4, #16
 80015cc:	2c01      	cmp	r4, #1
 80015ce:	d8c5      	bhi.n	800155c <HAL_ADCEx_InjectedConfigChannel+0x100>
 80015d0:	4a05      	ldr	r2, [pc, #20]	; (80015e8 <HAL_ADCEx_InjectedConfigChannel+0x18c>)
 80015d2:	6853      	ldr	r3, [r2, #4]
 80015d4:	f443 0300 	orr.w	r3, r3, #8388608	; 0x800000
 80015d8:	6053      	str	r3, [r2, #4]
 80015da:	e7bf      	b.n	800155c <HAL_ADCEx_InjectedConfigChannel+0x100>
 80015dc:	000f0001 	.word	0x000f0001
 80015e0:	fffff000 	.word	0xfffff000
 80015e4:	40012000 	.word	0x40012000
 80015e8:	40012300 	.word	0x40012300

080015ec <HAL_NVIC_SetPriorityGrouping>:
 80015ec:	4907      	ldr	r1, [pc, #28]	; (800160c <HAL_NVIC_SetPriorityGrouping+0x20>)
 80015ee:	68ca      	ldr	r2, [r1, #12]
 80015f0:	f422 62e0 	bic.w	r2, r2, #1792	; 0x700
 80015f4:	0203      	lsls	r3, r0, #8
 80015f6:	0412      	lsls	r2, r2, #16
 80015f8:	f403 63e0 	and.w	r3, r3, #1792	; 0x700
 80015fc:	0c12      	lsrs	r2, r2, #16
 80015fe:	4313      	orrs	r3, r2
 8001600:	f043 63bf 	orr.w	r3, r3, #100139008	; 0x5f80000
 8001604:	f443 3300 	orr.w	r3, r3, #131072	; 0x20000
 8001608:	60cb      	str	r3, [r1, #12]
 800160a:	4770      	bx	lr
 800160c:	e000ed00 	.word	0xe000ed00

08001610 <HAL_NVIC_SetPriority>:
 8001610:	4b16      	ldr	r3, [pc, #88]	; (800166c <HAL_NVIC_SetPriority+0x5c>)
 8001612:	b530      	push	{r4, r5, lr}
 8001614:	68dc      	ldr	r4, [r3, #12]
 8001616:	f3c4 2402 	ubfx	r4, r4, #8, #3
 800161a:	f1c4 0307 	rsb	r3, r4, #7
 800161e:	1d25      	adds	r5, r4, #4
 8001620:	2b04      	cmp	r3, #4
 8001622:	bf28      	it	cs
 8001624:	2304      	movcs	r3, #4
 8001626:	2d06      	cmp	r5, #6
 8001628:	f04f 35ff 	mov.w	r5, #4294967295
 800162c:	bf8c      	ite	hi
 800162e:	3c03      	subhi	r4, #3
 8001630:	2400      	movls	r4, #0
 8001632:	fa05 f303 	lsl.w	r3, r5, r3
 8001636:	ea21 0303 	bic.w	r3, r1, r3
 800163a:	40a5      	lsls	r5, r4
 800163c:	ea22 0205 	bic.w	r2, r2, r5
 8001640:	40a3      	lsls	r3, r4
 8001642:	2800      	cmp	r0, #0
 8001644:	ea43 0302 	orr.w	r3, r3, r2
 8001648:	bfac      	ite	ge
 800164a:	f100 4060 	addge.w	r0, r0, #3758096384	; 0xe0000000
 800164e:	4a08      	ldrlt	r2, [pc, #32]	; (8001670 <HAL_NVIC_SetPriority+0x60>)
 8001650:	ea4f 1303 	mov.w	r3, r3, lsl #4
 8001654:	bfb8      	it	lt
 8001656:	f000 000f 	andlt.w	r0, r0, #15
 800165a:	b2db      	uxtb	r3, r3
 800165c:	bfaa      	itet	ge
 800165e:	f500 4061 	addge.w	r0, r0, #57600	; 0xe100
 8001662:	5413      	strblt	r3, [r2, r0]
 8001664:	f880 3300 	strbge.w	r3, [r0, #768]	; 0x300
 8001668:	bd30      	pop	{r4, r5, pc}
 800166a:	bf00      	nop
 800166c:	e000ed00 	.word	0xe000ed00
 8001670:	e000ed14 	.word	0xe000ed14

08001674 <HAL_NVIC_EnableIRQ>:
 8001674:	2800      	cmp	r0, #0
 8001676:	db07      	blt.n	8001688 <HAL_NVIC_EnableIRQ+0x14>
 8001678:	0941      	lsrs	r1, r0, #5
 800167a:	4a04      	ldr	r2, [pc, #16]	; (800168c <HAL_NVIC_EnableIRQ+0x18>)
 800167c:	f000 001f 	and.w	r0, r0, #31
 8001680:	2301      	movs	r3, #1
 8001682:	4083      	lsls	r3, r0
 8001684:	f842 3021 	str.w	r3, [r2, r1, lsl #2]
 8001688:	4770      	bx	lr
 800168a:	bf00      	nop
 800168c:	e000e100 	.word	0xe000e100

08001690 <HAL_SYSTICK_Config>:
 8001690:	3801      	subs	r0, #1
 8001692:	f1b0 7f80 	cmp.w	r0, #16777216	; 0x1000000
 8001696:	d20b      	bcs.n	80016b0 <HAL_SYSTICK_Config+0x20>
 8001698:	f04f 23e0 	mov.w	r3, #3758153728	; 0xe000e000
 800169c:	4a05      	ldr	r2, [pc, #20]	; (80016b4 <HAL_SYSTICK_Config+0x24>)
 800169e:	6158      	str	r0, [r3, #20]
 80016a0:	21f0      	movs	r1, #240	; 0xf0
 80016a2:	f882 1023 	strb.w	r1, [r2, #35]	; 0x23
 80016a6:	2000      	movs	r0, #0
 80016a8:	2207      	movs	r2, #7
 80016aa:	6198      	str	r0, [r3, #24]
 80016ac:	611a      	str	r2, [r3, #16]
 80016ae:	4770      	bx	lr
 80016b0:	2001      	movs	r0, #1
 80016b2:	4770      	bx	lr
 80016b4:	e000ed00 	.word	0xe000ed00

080016b8 <DMA_CalcBaseAndBitshift>:
 80016b8:	6803      	ldr	r3, [r0, #0]
 80016ba:	b510      	push	{r4, lr}
 80016bc:	b2da      	uxtb	r2, r3
 80016be:	3a10      	subs	r2, #16
 80016c0:	4c07      	ldr	r4, [pc, #28]	; (80016e0 <DMA_CalcBaseAndBitshift+0x28>)
 80016c2:	f423 737f 	bic.w	r3, r3, #1020	; 0x3fc
 80016c6:	f023 0303 	bic.w	r3, r3, #3
 80016ca:	2a5f      	cmp	r2, #95	; 0x5f
 80016cc:	bf88      	it	hi
 80016ce:	3304      	addhi	r3, #4
 80016d0:	2118      	movs	r1, #24
 80016d2:	fbb2 f1f1 	udiv	r1, r2, r1
 80016d6:	5c61      	ldrb	r1, [r4, r1]
 80016d8:	65c1      	str	r1, [r0, #92]	; 0x5c
 80016da:	6583      	str	r3, [r0, #88]	; 0x58
 80016dc:	4618      	mov	r0, r3
 80016de:	bd10      	pop	{r4, pc}
 80016e0:	08003bb0 	.word	0x08003bb0

080016e4 <HAL_DMA_Init>:
 80016e4:	b570      	push	{r4, r5, r6, lr}
 80016e6:	4604      	mov	r4, r0
 80016e8:	f7ff fd68 	bl	80011bc <HAL_GetTick>
 80016ec:	4605      	mov	r5, r0
 80016ee:	2c00      	cmp	r4, #0
 80016f0:	d071      	beq.n	80017d6 <HAL_DMA_Init+0xf2>
 80016f2:	2302      	movs	r3, #2
 80016f4:	f884 3035 	strb.w	r3, [r4, #53]	; 0x35
 80016f8:	6822      	ldr	r2, [r4, #0]
 80016fa:	2300      	movs	r3, #0
 80016fc:	f884 3034 	strb.w	r3, [r4, #52]	; 0x34
 8001700:	6813      	ldr	r3, [r2, #0]
 8001702:	f023 0301 	bic.w	r3, r3, #1
 8001706:	6013      	str	r3, [r2, #0]
 8001708:	6822      	ldr	r2, [r4, #0]
 800170a:	6813      	ldr	r3, [r2, #0]
 800170c:	07d8      	lsls	r0, r3, #31
 800170e:	d42e      	bmi.n	800176e <HAL_DMA_Init+0x8a>
 8001710:	6813      	ldr	r3, [r2, #0]
 8001712:	4832      	ldr	r0, [pc, #200]	; (80017dc <HAL_DMA_Init+0xf8>)
 8001714:	69a1      	ldr	r1, [r4, #24]
 8001716:	4018      	ands	r0, r3
 8001718:	e9d4 3501 	ldrd	r3, r5, [r4, #4]
 800171c:	432b      	orrs	r3, r5
 800171e:	68e5      	ldr	r5, [r4, #12]
 8001720:	432b      	orrs	r3, r5
 8001722:	6925      	ldr	r5, [r4, #16]
 8001724:	432b      	orrs	r3, r5
 8001726:	6965      	ldr	r5, [r4, #20]
 8001728:	432b      	orrs	r3, r5
 800172a:	69e5      	ldr	r5, [r4, #28]
 800172c:	430b      	orrs	r3, r1
 800172e:	432b      	orrs	r3, r5
 8001730:	6a25      	ldr	r5, [r4, #32]
 8001732:	432b      	orrs	r3, r5
 8001734:	4303      	orrs	r3, r0
 8001736:	6a60      	ldr	r0, [r4, #36]	; 0x24
 8001738:	2804      	cmp	r0, #4
 800173a:	bf02      	ittt	eq
 800173c:	e9d4 560b 	ldrdeq	r5, r6, [r4, #44]	; 0x2c
 8001740:	4335      	orreq	r5, r6
 8001742:	432b      	orreq	r3, r5
 8001744:	6013      	str	r3, [r2, #0]
 8001746:	6953      	ldr	r3, [r2, #20]
 8001748:	2804      	cmp	r0, #4
 800174a:	f023 0307 	bic.w	r3, r3, #7
 800174e:	ea43 0300 	orr.w	r3, r3, r0
 8001752:	d132      	bne.n	80017ba <HAL_DMA_Init+0xd6>
 8001754:	6aa0      	ldr	r0, [r4, #40]	; 0x28
 8001756:	6ae5      	ldr	r5, [r4, #44]	; 0x2c
 8001758:	4303      	orrs	r3, r0
 800175a:	b375      	cbz	r5, 80017ba <HAL_DMA_Init+0xd6>
 800175c:	b991      	cbnz	r1, 8001784 <HAL_DMA_Init+0xa0>
 800175e:	2801      	cmp	r0, #1
 8001760:	d020      	beq.n	80017a4 <HAL_DMA_Init+0xc0>
 8001762:	f030 0102 	bics.w	r1, r0, #2
 8001766:	d128      	bne.n	80017ba <HAL_DMA_Init+0xd6>
 8001768:	01e9      	lsls	r1, r5, #7
 800176a:	d526      	bpl.n	80017ba <HAL_DMA_Init+0xd6>
 800176c:	e01d      	b.n	80017aa <HAL_DMA_Init+0xc6>
 800176e:	f7ff fd25 	bl	80011bc <HAL_GetTick>
 8001772:	1b40      	subs	r0, r0, r5
 8001774:	2805      	cmp	r0, #5
 8001776:	d9c7      	bls.n	8001708 <HAL_DMA_Init+0x24>
 8001778:	2320      	movs	r3, #32
 800177a:	6563      	str	r3, [r4, #84]	; 0x54
 800177c:	2003      	movs	r0, #3
 800177e:	f884 0035 	strb.w	r0, [r4, #53]	; 0x35
 8001782:	bd70      	pop	{r4, r5, r6, pc}
 8001784:	f5b1 5f00 	cmp.w	r1, #8192	; 0x2000
 8001788:	d113      	bne.n	80017b2 <HAL_DMA_Init+0xce>
 800178a:	2803      	cmp	r0, #3
 800178c:	d815      	bhi.n	80017ba <HAL_DMA_Init+0xd6>
 800178e:	a101      	add	r1, pc, #4	; (adr r1, 8001794 <HAL_DMA_Init+0xb0>)
 8001790:	f851 f020 	ldr.w	pc, [r1, r0, lsl #2]
 8001794:	080017ab 	.word	0x080017ab
 8001798:	08001769 	.word	0x08001769
 800179c:	080017ab 	.word	0x080017ab
 80017a0:	080017a5 	.word	0x080017a5
 80017a4:	f1b5 7fc0 	cmp.w	r5, #25165824	; 0x1800000
 80017a8:	d107      	bne.n	80017ba <HAL_DMA_Init+0xd6>
 80017aa:	2340      	movs	r3, #64	; 0x40
 80017ac:	6563      	str	r3, [r4, #84]	; 0x54
 80017ae:	2001      	movs	r0, #1
 80017b0:	e7e5      	b.n	800177e <HAL_DMA_Init+0x9a>
 80017b2:	2802      	cmp	r0, #2
 80017b4:	d9f9      	bls.n	80017aa <HAL_DMA_Init+0xc6>
 80017b6:	2803      	cmp	r0, #3
 80017b8:	d0d6      	beq.n	8001768 <HAL_DMA_Init+0x84>
 80017ba:	6153      	str	r3, [r2, #20]
 80017bc:	4620      	mov	r0, r4
 80017be:	f7ff ff7b 	bl	80016b8 <DMA_CalcBaseAndBitshift>
 80017c2:	6de2      	ldr	r2, [r4, #92]	; 0x5c
 80017c4:	233f      	movs	r3, #63	; 0x3f
 80017c6:	4093      	lsls	r3, r2
 80017c8:	6083      	str	r3, [r0, #8]
 80017ca:	2000      	movs	r0, #0
 80017cc:	2301      	movs	r3, #1
 80017ce:	6560      	str	r0, [r4, #84]	; 0x54
 80017d0:	f884 3035 	strb.w	r3, [r4, #53]	; 0x35
 80017d4:	e7d5      	b.n	8001782 <HAL_DMA_Init+0x9e>
 80017d6:	2001      	movs	r0, #1
 80017d8:	e7d3      	b.n	8001782 <HAL_DMA_Init+0x9e>
 80017da:	bf00      	nop
 80017dc:	f010803f 	.word	0xf010803f

080017e0 <HAL_DMA_IRQHandler>:
 80017e0:	b5f7      	push	{r0, r1, r2, r4, r5, r6, r7, lr}
 80017e2:	2300      	movs	r3, #0
 80017e4:	9301      	str	r3, [sp, #4]
 80017e6:	4b5c      	ldr	r3, [pc, #368]	; (8001958 <HAL_DMA_IRQHandler+0x178>)
 80017e8:	6d85      	ldr	r5, [r0, #88]	; 0x58
 80017ea:	681f      	ldr	r7, [r3, #0]
 80017ec:	6dc3      	ldr	r3, [r0, #92]	; 0x5c
 80017ee:	682e      	ldr	r6, [r5, #0]
 80017f0:	2208      	movs	r2, #8
 80017f2:	409a      	lsls	r2, r3
 80017f4:	4232      	tst	r2, r6
 80017f6:	4604      	mov	r4, r0
 80017f8:	d00c      	beq.n	8001814 <HAL_DMA_IRQHandler+0x34>
 80017fa:	6801      	ldr	r1, [r0, #0]
 80017fc:	6808      	ldr	r0, [r1, #0]
 80017fe:	0740      	lsls	r0, r0, #29
 8001800:	d508      	bpl.n	8001814 <HAL_DMA_IRQHandler+0x34>
 8001802:	6808      	ldr	r0, [r1, #0]
 8001804:	f020 0004 	bic.w	r0, r0, #4
 8001808:	6008      	str	r0, [r1, #0]
 800180a:	60aa      	str	r2, [r5, #8]
 800180c:	6d62      	ldr	r2, [r4, #84]	; 0x54
 800180e:	f042 0201 	orr.w	r2, r2, #1
 8001812:	6562      	str	r2, [r4, #84]	; 0x54
 8001814:	2201      	movs	r2, #1
 8001816:	409a      	lsls	r2, r3
 8001818:	4232      	tst	r2, r6
 800181a:	d008      	beq.n	800182e <HAL_DMA_IRQHandler+0x4e>
 800181c:	6821      	ldr	r1, [r4, #0]
 800181e:	6949      	ldr	r1, [r1, #20]
 8001820:	0609      	lsls	r1, r1, #24
 8001822:	bf41      	itttt	mi
 8001824:	60aa      	strmi	r2, [r5, #8]
 8001826:	6d62      	ldrmi	r2, [r4, #84]	; 0x54
 8001828:	f042 0202 	orrmi.w	r2, r2, #2
 800182c:	6562      	strmi	r2, [r4, #84]	; 0x54
 800182e:	2204      	movs	r2, #4
 8001830:	409a      	lsls	r2, r3
 8001832:	4232      	tst	r2, r6
 8001834:	d008      	beq.n	8001848 <HAL_DMA_IRQHandler+0x68>
 8001836:	6821      	ldr	r1, [r4, #0]
 8001838:	6809      	ldr	r1, [r1, #0]
 800183a:	0788      	lsls	r0, r1, #30
 800183c:	bf41      	itttt	mi
 800183e:	60aa      	strmi	r2, [r5, #8]
 8001840:	6d62      	ldrmi	r2, [r4, #84]	; 0x54
 8001842:	f042 0204 	orrmi.w	r2, r2, #4
 8001846:	6562      	strmi	r2, [r4, #84]	; 0x54
 8001848:	2210      	movs	r2, #16
 800184a:	409a      	lsls	r2, r3
 800184c:	4232      	tst	r2, r6
 800184e:	d010      	beq.n	8001872 <HAL_DMA_IRQHandler+0x92>
 8001850:	6823      	ldr	r3, [r4, #0]
 8001852:	6819      	ldr	r1, [r3, #0]
 8001854:	0709      	lsls	r1, r1, #28
 8001856:	d50c      	bpl.n	8001872 <HAL_DMA_IRQHandler+0x92>
 8001858:	60aa      	str	r2, [r5, #8]
 800185a:	681a      	ldr	r2, [r3, #0]
 800185c:	0350      	lsls	r0, r2, #13
 800185e:	d537      	bpl.n	80018d0 <HAL_DMA_IRQHandler+0xf0>
 8001860:	681b      	ldr	r3, [r3, #0]
 8001862:	0319      	lsls	r1, r3, #12
 8001864:	d401      	bmi.n	800186a <HAL_DMA_IRQHandler+0x8a>
 8001866:	6c23      	ldr	r3, [r4, #64]	; 0x40
 8001868:	e000      	b.n	800186c <HAL_DMA_IRQHandler+0x8c>
 800186a:	6ca3      	ldr	r3, [r4, #72]	; 0x48
 800186c:	b10b      	cbz	r3, 8001872 <HAL_DMA_IRQHandler+0x92>
 800186e:	4620      	mov	r0, r4
 8001870:	4798      	blx	r3
 8001872:	6de1      	ldr	r1, [r4, #92]	; 0x5c
 8001874:	2220      	movs	r2, #32
 8001876:	408a      	lsls	r2, r1
 8001878:	4232      	tst	r2, r6
 800187a:	d03a      	beq.n	80018f2 <HAL_DMA_IRQHandler+0x112>
 800187c:	6823      	ldr	r3, [r4, #0]
 800187e:	6818      	ldr	r0, [r3, #0]
 8001880:	06c6      	lsls	r6, r0, #27
 8001882:	d536      	bpl.n	80018f2 <HAL_DMA_IRQHandler+0x112>
 8001884:	60aa      	str	r2, [r5, #8]
 8001886:	f894 2035 	ldrb.w	r2, [r4, #53]	; 0x35
 800188a:	2a05      	cmp	r2, #5
 800188c:	681a      	ldr	r2, [r3, #0]
 800188e:	d127      	bne.n	80018e0 <HAL_DMA_IRQHandler+0x100>
 8001890:	f022 0216 	bic.w	r2, r2, #22
 8001894:	601a      	str	r2, [r3, #0]
 8001896:	695a      	ldr	r2, [r3, #20]
 8001898:	f022 0280 	bic.w	r2, r2, #128	; 0x80
 800189c:	615a      	str	r2, [r3, #20]
 800189e:	6c22      	ldr	r2, [r4, #64]	; 0x40
 80018a0:	b90a      	cbnz	r2, 80018a6 <HAL_DMA_IRQHandler+0xc6>
 80018a2:	6ca2      	ldr	r2, [r4, #72]	; 0x48
 80018a4:	b11a      	cbz	r2, 80018ae <HAL_DMA_IRQHandler+0xce>
 80018a6:	681a      	ldr	r2, [r3, #0]
 80018a8:	f022 0208 	bic.w	r2, r2, #8
 80018ac:	601a      	str	r2, [r3, #0]
 80018ae:	233f      	movs	r3, #63	; 0x3f
 80018b0:	408b      	lsls	r3, r1
 80018b2:	60ab      	str	r3, [r5, #8]
 80018b4:	2301      	movs	r3, #1
 80018b6:	f884 3035 	strb.w	r3, [r4, #53]	; 0x35
 80018ba:	2300      	movs	r3, #0
 80018bc:	f884 3034 	strb.w	r3, [r4, #52]	; 0x34
 80018c0:	6d23      	ldr	r3, [r4, #80]	; 0x50
 80018c2:	2b00      	cmp	r3, #0
 80018c4:	d045      	beq.n	8001952 <HAL_DMA_IRQHandler+0x172>
 80018c6:	4620      	mov	r0, r4
 80018c8:	b003      	add	sp, #12
 80018ca:	e8bd 40f0 	ldmia.w	sp!, {r4, r5, r6, r7, lr}
 80018ce:	4718      	bx	r3
 80018d0:	681a      	ldr	r2, [r3, #0]
 80018d2:	05d2      	lsls	r2, r2, #23
 80018d4:	bf5e      	ittt	pl
 80018d6:	681a      	ldrpl	r2, [r3, #0]
 80018d8:	f022 0208 	bicpl.w	r2, r2, #8
 80018dc:	601a      	strpl	r2, [r3, #0]
 80018de:	e7c2      	b.n	8001866 <HAL_DMA_IRQHandler+0x86>
 80018e0:	0350      	lsls	r0, r2, #13
 80018e2:	d527      	bpl.n	8001934 <HAL_DMA_IRQHandler+0x154>
 80018e4:	681b      	ldr	r3, [r3, #0]
 80018e6:	0319      	lsls	r1, r3, #12
 80018e8:	d431      	bmi.n	800194e <HAL_DMA_IRQHandler+0x16e>
 80018ea:	6c63      	ldr	r3, [r4, #68]	; 0x44
 80018ec:	b10b      	cbz	r3, 80018f2 <HAL_DMA_IRQHandler+0x112>
 80018ee:	4620      	mov	r0, r4
 80018f0:	4798      	blx	r3
 80018f2:	6d63      	ldr	r3, [r4, #84]	; 0x54
 80018f4:	b36b      	cbz	r3, 8001952 <HAL_DMA_IRQHandler+0x172>
 80018f6:	6d63      	ldr	r3, [r4, #84]	; 0x54
 80018f8:	07da      	lsls	r2, r3, #31
 80018fa:	d519      	bpl.n	8001930 <HAL_DMA_IRQHandler+0x150>
 80018fc:	6822      	ldr	r2, [r4, #0]
 80018fe:	f44f 5316 	mov.w	r3, #9600	; 0x2580
 8001902:	fbb7 f7f3 	udiv	r7, r7, r3
 8001906:	2305      	movs	r3, #5
 8001908:	f884 3035 	strb.w	r3, [r4, #53]	; 0x35
 800190c:	6813      	ldr	r3, [r2, #0]
 800190e:	f023 0301 	bic.w	r3, r3, #1
 8001912:	6013      	str	r3, [r2, #0]
 8001914:	9b01      	ldr	r3, [sp, #4]
 8001916:	3301      	adds	r3, #1
 8001918:	42bb      	cmp	r3, r7
 800191a:	9301      	str	r3, [sp, #4]
 800191c:	d802      	bhi.n	8001924 <HAL_DMA_IRQHandler+0x144>
 800191e:	6813      	ldr	r3, [r2, #0]
 8001920:	07db      	lsls	r3, r3, #31
 8001922:	d4f7      	bmi.n	8001914 <HAL_DMA_IRQHandler+0x134>
 8001924:	2301      	movs	r3, #1
 8001926:	f884 3035 	strb.w	r3, [r4, #53]	; 0x35
 800192a:	2300      	movs	r3, #0
 800192c:	f884 3034 	strb.w	r3, [r4, #52]	; 0x34
 8001930:	6ce3      	ldr	r3, [r4, #76]	; 0x4c
 8001932:	e7c6      	b.n	80018c2 <HAL_DMA_IRQHandler+0xe2>
 8001934:	681a      	ldr	r2, [r3, #0]
 8001936:	f412 7280 	ands.w	r2, r2, #256	; 0x100
 800193a:	d108      	bne.n	800194e <HAL_DMA_IRQHandler+0x16e>
 800193c:	6819      	ldr	r1, [r3, #0]
 800193e:	f021 0110 	bic.w	r1, r1, #16
 8001942:	6019      	str	r1, [r3, #0]
 8001944:	2301      	movs	r3, #1
 8001946:	f884 3035 	strb.w	r3, [r4, #53]	; 0x35
 800194a:	f884 2034 	strb.w	r2, [r4, #52]	; 0x34
 800194e:	6be3      	ldr	r3, [r4, #60]	; 0x3c
 8001950:	e7cc      	b.n	80018ec <HAL_DMA_IRQHandler+0x10c>
 8001952:	b003      	add	sp, #12
 8001954:	bdf0      	pop	{r4, r5, r6, r7, pc}
 8001956:	bf00      	nop
 8001958:	20000000 	.word	0x20000000

0800195c <HAL_GPIO_Init>:
 800195c:	e92d 4ff7 	stmdb	sp!, {r0, r1, r2, r4, r5, r6, r7, r8, r9, sl, fp, lr}
 8001960:	f8df 91a8 	ldr.w	r9, [pc, #424]	; 8001b0c <HAL_GPIO_Init+0x1b0>
 8001964:	4a67      	ldr	r2, [pc, #412]	; (8001b04 <HAL_GPIO_Init+0x1a8>)
 8001966:	2300      	movs	r3, #0
 8001968:	680d      	ldr	r5, [r1, #0]
 800196a:	2401      	movs	r4, #1
 800196c:	409c      	lsls	r4, r3
 800196e:	ea04 0c05 	and.w	ip, r4, r5
 8001972:	43ac      	bics	r4, r5
 8001974:	f040 80b1 	bne.w	8001ada <HAL_GPIO_Init+0x17e>
 8001978:	684d      	ldr	r5, [r1, #4]
 800197a:	f005 0403 	and.w	r4, r5, #3
 800197e:	ea4f 0843 	mov.w	r8, r3, lsl #1
 8001982:	2603      	movs	r6, #3
 8001984:	1e67      	subs	r7, r4, #1
 8001986:	fa06 f608 	lsl.w	r6, r6, r8
 800198a:	2f01      	cmp	r7, #1
 800198c:	ea6f 0606 	mvn.w	r6, r6
 8001990:	d834      	bhi.n	80019fc <HAL_GPIO_Init+0xa0>
 8001992:	6887      	ldr	r7, [r0, #8]
 8001994:	ea07 0e06 	and.w	lr, r7, r6
 8001998:	68cf      	ldr	r7, [r1, #12]
 800199a:	fa07 f708 	lsl.w	r7, r7, r8
 800199e:	ea47 070e 	orr.w	r7, r7, lr
 80019a2:	6087      	str	r7, [r0, #8]
 80019a4:	6847      	ldr	r7, [r0, #4]
 80019a6:	ea27 0e0c 	bic.w	lr, r7, ip
 80019aa:	f3c5 1700 	ubfx	r7, r5, #4, #1
 80019ae:	409f      	lsls	r7, r3
 80019b0:	ea47 070e 	orr.w	r7, r7, lr
 80019b4:	6047      	str	r7, [r0, #4]
 80019b6:	68c7      	ldr	r7, [r0, #12]
 80019b8:	ea07 0e06 	and.w	lr, r7, r6
 80019bc:	688f      	ldr	r7, [r1, #8]
 80019be:	fa07 f708 	lsl.w	r7, r7, r8
 80019c2:	ea47 070e 	orr.w	r7, r7, lr
 80019c6:	2c02      	cmp	r4, #2
 80019c8:	60c7      	str	r7, [r0, #12]
 80019ca:	d119      	bne.n	8001a00 <HAL_GPIO_Init+0xa4>
 80019cc:	ea4f 0ad3 	mov.w	sl, r3, lsr #3
 80019d0:	eb00 0a8a 	add.w	sl, r0, sl, lsl #2
 80019d4:	f003 0b07 	and.w	fp, r3, #7
 80019d8:	f8da 7020 	ldr.w	r7, [sl, #32]
 80019dc:	ea4f 0b8b 	mov.w	fp, fp, lsl #2
 80019e0:	f04f 0e0f 	mov.w	lr, #15
 80019e4:	fa0e fe0b 	lsl.w	lr, lr, fp
 80019e8:	ea27 0e0e 	bic.w	lr, r7, lr
 80019ec:	690f      	ldr	r7, [r1, #16]
 80019ee:	fa07 f70b 	lsl.w	r7, r7, fp
 80019f2:	ea47 070e 	orr.w	r7, r7, lr
 80019f6:	f8ca 7020 	str.w	r7, [sl, #32]
 80019fa:	e001      	b.n	8001a00 <HAL_GPIO_Init+0xa4>
 80019fc:	2c03      	cmp	r4, #3
 80019fe:	d1da      	bne.n	80019b6 <HAL_GPIO_Init+0x5a>
 8001a00:	6807      	ldr	r7, [r0, #0]
 8001a02:	fa04 f408 	lsl.w	r4, r4, r8
 8001a06:	4037      	ands	r7, r6
 8001a08:	433c      	orrs	r4, r7
 8001a0a:	f415 3f40 	tst.w	r5, #196608	; 0x30000
 8001a0e:	6004      	str	r4, [r0, #0]
 8001a10:	d063      	beq.n	8001ada <HAL_GPIO_Init+0x17e>
 8001a12:	f04f 0a00 	mov.w	sl, #0
 8001a16:	f8cd a004 	str.w	sl, [sp, #4]
 8001a1a:	f8d9 6044 	ldr.w	r6, [r9, #68]	; 0x44
 8001a1e:	4c3a      	ldr	r4, [pc, #232]	; (8001b08 <HAL_GPIO_Init+0x1ac>)
 8001a20:	f446 4680 	orr.w	r6, r6, #16384	; 0x4000
 8001a24:	f8c9 6044 	str.w	r6, [r9, #68]	; 0x44
 8001a28:	f8d9 6044 	ldr.w	r6, [r9, #68]	; 0x44
 8001a2c:	f406 4680 	and.w	r6, r6, #16384	; 0x4000
 8001a30:	9601      	str	r6, [sp, #4]
 8001a32:	9e01      	ldr	r6, [sp, #4]
 8001a34:	f023 0603 	bic.w	r6, r3, #3
 8001a38:	f106 4680 	add.w	r6, r6, #1073741824	; 0x40000000
 8001a3c:	f506 369c 	add.w	r6, r6, #79872	; 0x13800
 8001a40:	f003 0e03 	and.w	lr, r3, #3
 8001a44:	f8d6 8008 	ldr.w	r8, [r6, #8]
 8001a48:	ea4f 0e8e 	mov.w	lr, lr, lsl #2
 8001a4c:	270f      	movs	r7, #15
 8001a4e:	fa07 f70e 	lsl.w	r7, r7, lr
 8001a52:	42a0      	cmp	r0, r4
 8001a54:	ea28 0707 	bic.w	r7, r8, r7
 8001a58:	d046      	beq.n	8001ae8 <HAL_GPIO_Init+0x18c>
 8001a5a:	f504 6480 	add.w	r4, r4, #1024	; 0x400
 8001a5e:	42a0      	cmp	r0, r4
 8001a60:	d044      	beq.n	8001aec <HAL_GPIO_Init+0x190>
 8001a62:	f504 6480 	add.w	r4, r4, #1024	; 0x400
 8001a66:	42a0      	cmp	r0, r4
 8001a68:	d042      	beq.n	8001af0 <HAL_GPIO_Init+0x194>
 8001a6a:	f504 6480 	add.w	r4, r4, #1024	; 0x400
 8001a6e:	42a0      	cmp	r0, r4
 8001a70:	d040      	beq.n	8001af4 <HAL_GPIO_Init+0x198>
 8001a72:	f504 6480 	add.w	r4, r4, #1024	; 0x400
 8001a76:	42a0      	cmp	r0, r4
 8001a78:	d03e      	beq.n	8001af8 <HAL_GPIO_Init+0x19c>
 8001a7a:	f504 6480 	add.w	r4, r4, #1024	; 0x400
 8001a7e:	42a0      	cmp	r0, r4
 8001a80:	d03c      	beq.n	8001afc <HAL_GPIO_Init+0x1a0>
 8001a82:	f504 6480 	add.w	r4, r4, #1024	; 0x400
 8001a86:	42a0      	cmp	r0, r4
 8001a88:	d03a      	beq.n	8001b00 <HAL_GPIO_Init+0x1a4>
 8001a8a:	f504 6480 	add.w	r4, r4, #1024	; 0x400
 8001a8e:	42a0      	cmp	r0, r4
 8001a90:	bf0c      	ite	eq
 8001a92:	2407      	moveq	r4, #7
 8001a94:	2408      	movne	r4, #8
 8001a96:	fa04 f40e 	lsl.w	r4, r4, lr
 8001a9a:	433c      	orrs	r4, r7
 8001a9c:	60b4      	str	r4, [r6, #8]
 8001a9e:	6894      	ldr	r4, [r2, #8]
 8001aa0:	ea6f 060c 	mvn.w	r6, ip
 8001aa4:	02ef      	lsls	r7, r5, #11
 8001aa6:	bf54      	ite	pl
 8001aa8:	4034      	andpl	r4, r6
 8001aaa:	ea4c 0404 	orrmi.w	r4, ip, r4
 8001aae:	6094      	str	r4, [r2, #8]
 8001ab0:	68d4      	ldr	r4, [r2, #12]
 8001ab2:	02af      	lsls	r7, r5, #10
 8001ab4:	bf54      	ite	pl
 8001ab6:	4034      	andpl	r4, r6
 8001ab8:	ea4c 0404 	orrmi.w	r4, ip, r4
 8001abc:	60d4      	str	r4, [r2, #12]
 8001abe:	6854      	ldr	r4, [r2, #4]
 8001ac0:	03af      	lsls	r7, r5, #14
 8001ac2:	bf54      	ite	pl
 8001ac4:	4034      	andpl	r4, r6
 8001ac6:	ea4c 0404 	orrmi.w	r4, ip, r4
 8001aca:	6054      	str	r4, [r2, #4]
 8001acc:	6814      	ldr	r4, [r2, #0]
 8001ace:	03ed      	lsls	r5, r5, #15
 8001ad0:	bf54      	ite	pl
 8001ad2:	4034      	andpl	r4, r6
 8001ad4:	ea4c 0404 	orrmi.w	r4, ip, r4
 8001ad8:	6014      	str	r4, [r2, #0]
 8001ada:	3301      	adds	r3, #1
 8001adc:	2b10      	cmp	r3, #16
 8001ade:	f47f af43 	bne.w	8001968 <HAL_GPIO_Init+0xc>
 8001ae2:	b003      	add	sp, #12
 8001ae4:	e8bd 8ff0 	ldmia.w	sp!, {r4, r5, r6, r7, r8, r9, sl, fp, pc}
 8001ae8:	4654      	mov	r4, sl
 8001aea:	e7d4      	b.n	8001a96 <HAL_GPIO_Init+0x13a>
 8001aec:	2401      	movs	r4, #1
 8001aee:	e7d2      	b.n	8001a96 <HAL_GPIO_Init+0x13a>
 8001af0:	2402      	movs	r4, #2
 8001af2:	e7d0      	b.n	8001a96 <HAL_GPIO_Init+0x13a>
 8001af4:	2403      	movs	r4, #3
 8001af6:	e7ce      	b.n	8001a96 <HAL_GPIO_Init+0x13a>
 8001af8:	2404      	movs	r4, #4
 8001afa:	e7cc      	b.n	8001a96 <HAL_GPIO_Init+0x13a>
 8001afc:	2405      	movs	r4, #5
 8001afe:	e7ca      	b.n	8001a96 <HAL_GPIO_Init+0x13a>
 8001b00:	2406      	movs	r4, #6
 8001b02:	e7c8      	b.n	8001a96 <HAL_GPIO_Init+0x13a>
 8001b04:	40013c00 	.word	0x40013c00
 8001b08:	40020000 	.word	0x40020000
 8001b0c:	40023800 	.word	0x40023800

08001b10 <HAL_GPIO_WritePin>:
 8001b10:	b10a      	cbz	r2, 8001b16 <HAL_GPIO_WritePin+0x6>
 8001b12:	6181      	str	r1, [r0, #24]
 8001b14:	4770      	bx	lr
 8001b16:	0409      	lsls	r1, r1, #16
 8001b18:	e7fb      	b.n	8001b12 <HAL_GPIO_WritePin+0x2>
	...

08001b1c <HAL_RCC_OscConfig>:
 8001b1c:	e92d 41f3 	stmdb	sp!, {r0, r1, r4, r5, r6, r7, r8, lr}
 8001b20:	4604      	mov	r4, r0
 8001b22:	b340      	cbz	r0, 8001b76 <HAL_RCC_OscConfig+0x5a>
 8001b24:	6803      	ldr	r3, [r0, #0]
 8001b26:	07dd      	lsls	r5, r3, #31
 8001b28:	d410      	bmi.n	8001b4c <HAL_RCC_OscConfig+0x30>
 8001b2a:	6823      	ldr	r3, [r4, #0]
 8001b2c:	0798      	lsls	r0, r3, #30
 8001b2e:	d45b      	bmi.n	8001be8 <HAL_RCC_OscConfig+0xcc>
 8001b30:	6823      	ldr	r3, [r4, #0]
 8001b32:	071a      	lsls	r2, r3, #28
 8001b34:	f100 809d 	bmi.w	8001c72 <HAL_RCC_OscConfig+0x156>
 8001b38:	6823      	ldr	r3, [r4, #0]
 8001b3a:	075b      	lsls	r3, r3, #29
 8001b3c:	f100 80bd 	bmi.w	8001cba <HAL_RCC_OscConfig+0x19e>
 8001b40:	69a0      	ldr	r0, [r4, #24]
 8001b42:	2800      	cmp	r0, #0
 8001b44:	f040 8124 	bne.w	8001d90 <HAL_RCC_OscConfig+0x274>
 8001b48:	2000      	movs	r0, #0
 8001b4a:	e02c      	b.n	8001ba6 <HAL_RCC_OscConfig+0x8a>
 8001b4c:	4b8d      	ldr	r3, [pc, #564]	; (8001d84 <HAL_RCC_OscConfig+0x268>)
 8001b4e:	689a      	ldr	r2, [r3, #8]
 8001b50:	f002 020c 	and.w	r2, r2, #12
 8001b54:	2a04      	cmp	r2, #4
 8001b56:	d007      	beq.n	8001b68 <HAL_RCC_OscConfig+0x4c>
 8001b58:	689a      	ldr	r2, [r3, #8]
 8001b5a:	f002 020c 	and.w	r2, r2, #12
 8001b5e:	2a08      	cmp	r2, #8
 8001b60:	d10b      	bne.n	8001b7a <HAL_RCC_OscConfig+0x5e>
 8001b62:	685b      	ldr	r3, [r3, #4]
 8001b64:	0259      	lsls	r1, r3, #9
 8001b66:	d508      	bpl.n	8001b7a <HAL_RCC_OscConfig+0x5e>
 8001b68:	4b86      	ldr	r3, [pc, #536]	; (8001d84 <HAL_RCC_OscConfig+0x268>)
 8001b6a:	681b      	ldr	r3, [r3, #0]
 8001b6c:	039a      	lsls	r2, r3, #14
 8001b6e:	d5dc      	bpl.n	8001b2a <HAL_RCC_OscConfig+0xe>
 8001b70:	6863      	ldr	r3, [r4, #4]
 8001b72:	2b00      	cmp	r3, #0
 8001b74:	d1d9      	bne.n	8001b2a <HAL_RCC_OscConfig+0xe>
 8001b76:	2001      	movs	r0, #1
 8001b78:	e015      	b.n	8001ba6 <HAL_RCC_OscConfig+0x8a>
 8001b7a:	6863      	ldr	r3, [r4, #4]
 8001b7c:	4d81      	ldr	r5, [pc, #516]	; (8001d84 <HAL_RCC_OscConfig+0x268>)
 8001b7e:	f5b3 3f80 	cmp.w	r3, #65536	; 0x10000
 8001b82:	d113      	bne.n	8001bac <HAL_RCC_OscConfig+0x90>
 8001b84:	682b      	ldr	r3, [r5, #0]
 8001b86:	f443 3380 	orr.w	r3, r3, #65536	; 0x10000
 8001b8a:	602b      	str	r3, [r5, #0]
 8001b8c:	f7ff fb16 	bl	80011bc <HAL_GetTick>
 8001b90:	4e7c      	ldr	r6, [pc, #496]	; (8001d84 <HAL_RCC_OscConfig+0x268>)
 8001b92:	4605      	mov	r5, r0
 8001b94:	6833      	ldr	r3, [r6, #0]
 8001b96:	039b      	lsls	r3, r3, #14
 8001b98:	d4c7      	bmi.n	8001b2a <HAL_RCC_OscConfig+0xe>
 8001b9a:	f7ff fb0f 	bl	80011bc <HAL_GetTick>
 8001b9e:	1b40      	subs	r0, r0, r5
 8001ba0:	2864      	cmp	r0, #100	; 0x64
 8001ba2:	d9f7      	bls.n	8001b94 <HAL_RCC_OscConfig+0x78>
 8001ba4:	2003      	movs	r0, #3
 8001ba6:	b002      	add	sp, #8
 8001ba8:	e8bd 81f0 	ldmia.w	sp!, {r4, r5, r6, r7, r8, pc}
 8001bac:	f5b3 2fa0 	cmp.w	r3, #327680	; 0x50000
 8001bb0:	d104      	bne.n	8001bbc <HAL_RCC_OscConfig+0xa0>
 8001bb2:	682b      	ldr	r3, [r5, #0]
 8001bb4:	f443 2380 	orr.w	r3, r3, #262144	; 0x40000
 8001bb8:	602b      	str	r3, [r5, #0]
 8001bba:	e7e3      	b.n	8001b84 <HAL_RCC_OscConfig+0x68>
 8001bbc:	682a      	ldr	r2, [r5, #0]
 8001bbe:	f422 3280 	bic.w	r2, r2, #65536	; 0x10000
 8001bc2:	602a      	str	r2, [r5, #0]
 8001bc4:	682a      	ldr	r2, [r5, #0]
 8001bc6:	f422 2280 	bic.w	r2, r2, #262144	; 0x40000
 8001bca:	602a      	str	r2, [r5, #0]
 8001bcc:	2b00      	cmp	r3, #0
 8001bce:	d1dd      	bne.n	8001b8c <HAL_RCC_OscConfig+0x70>
 8001bd0:	f7ff faf4 	bl	80011bc <HAL_GetTick>
 8001bd4:	4606      	mov	r6, r0
 8001bd6:	682b      	ldr	r3, [r5, #0]
 8001bd8:	039f      	lsls	r7, r3, #14
 8001bda:	d5a6      	bpl.n	8001b2a <HAL_RCC_OscConfig+0xe>
 8001bdc:	f7ff faee 	bl	80011bc <HAL_GetTick>
 8001be0:	1b80      	subs	r0, r0, r6
 8001be2:	2864      	cmp	r0, #100	; 0x64
 8001be4:	d9f7      	bls.n	8001bd6 <HAL_RCC_OscConfig+0xba>
 8001be6:	e7dd      	b.n	8001ba4 <HAL_RCC_OscConfig+0x88>
 8001be8:	4b66      	ldr	r3, [pc, #408]	; (8001d84 <HAL_RCC_OscConfig+0x268>)
 8001bea:	689a      	ldr	r2, [r3, #8]
 8001bec:	f012 0f0c 	tst.w	r2, #12
 8001bf0:	d007      	beq.n	8001c02 <HAL_RCC_OscConfig+0xe6>
 8001bf2:	689a      	ldr	r2, [r3, #8]
 8001bf4:	f002 020c 	and.w	r2, r2, #12
 8001bf8:	2a08      	cmp	r2, #8
 8001bfa:	d111      	bne.n	8001c20 <HAL_RCC_OscConfig+0x104>
 8001bfc:	685b      	ldr	r3, [r3, #4]
 8001bfe:	025e      	lsls	r6, r3, #9
 8001c00:	d40e      	bmi.n	8001c20 <HAL_RCC_OscConfig+0x104>
 8001c02:	4a60      	ldr	r2, [pc, #384]	; (8001d84 <HAL_RCC_OscConfig+0x268>)
 8001c04:	6813      	ldr	r3, [r2, #0]
 8001c06:	079d      	lsls	r5, r3, #30
 8001c08:	d502      	bpl.n	8001c10 <HAL_RCC_OscConfig+0xf4>
 8001c0a:	68e3      	ldr	r3, [r4, #12]
 8001c0c:	2b01      	cmp	r3, #1
 8001c0e:	d1b2      	bne.n	8001b76 <HAL_RCC_OscConfig+0x5a>
 8001c10:	6813      	ldr	r3, [r2, #0]
 8001c12:	6921      	ldr	r1, [r4, #16]
 8001c14:	f023 03f8 	bic.w	r3, r3, #248	; 0xf8
 8001c18:	ea43 03c1 	orr.w	r3, r3, r1, lsl #3
 8001c1c:	6013      	str	r3, [r2, #0]
 8001c1e:	e787      	b.n	8001b30 <HAL_RCC_OscConfig+0x14>
 8001c20:	68e2      	ldr	r2, [r4, #12]
 8001c22:	4b59      	ldr	r3, [pc, #356]	; (8001d88 <HAL_RCC_OscConfig+0x26c>)
 8001c24:	b1b2      	cbz	r2, 8001c54 <HAL_RCC_OscConfig+0x138>
 8001c26:	2201      	movs	r2, #1
 8001c28:	601a      	str	r2, [r3, #0]
 8001c2a:	f7ff fac7 	bl	80011bc <HAL_GetTick>
 8001c2e:	4d55      	ldr	r5, [pc, #340]	; (8001d84 <HAL_RCC_OscConfig+0x268>)
 8001c30:	4606      	mov	r6, r0
 8001c32:	682b      	ldr	r3, [r5, #0]
 8001c34:	0798      	lsls	r0, r3, #30
 8001c36:	d507      	bpl.n	8001c48 <HAL_RCC_OscConfig+0x12c>
 8001c38:	682b      	ldr	r3, [r5, #0]
 8001c3a:	6922      	ldr	r2, [r4, #16]
 8001c3c:	f023 03f8 	bic.w	r3, r3, #248	; 0xf8
 8001c40:	ea43 03c2 	orr.w	r3, r3, r2, lsl #3
 8001c44:	602b      	str	r3, [r5, #0]
 8001c46:	e773      	b.n	8001b30 <HAL_RCC_OscConfig+0x14>
 8001c48:	f7ff fab8 	bl	80011bc <HAL_GetTick>
 8001c4c:	1b80      	subs	r0, r0, r6
 8001c4e:	2802      	cmp	r0, #2
 8001c50:	d9ef      	bls.n	8001c32 <HAL_RCC_OscConfig+0x116>
 8001c52:	e7a7      	b.n	8001ba4 <HAL_RCC_OscConfig+0x88>
 8001c54:	601a      	str	r2, [r3, #0]
 8001c56:	f7ff fab1 	bl	80011bc <HAL_GetTick>
 8001c5a:	4e4a      	ldr	r6, [pc, #296]	; (8001d84 <HAL_RCC_OscConfig+0x268>)
 8001c5c:	4605      	mov	r5, r0
 8001c5e:	6833      	ldr	r3, [r6, #0]
 8001c60:	0799      	lsls	r1, r3, #30
 8001c62:	f57f af65 	bpl.w	8001b30 <HAL_RCC_OscConfig+0x14>
 8001c66:	f7ff faa9 	bl	80011bc <HAL_GetTick>
 8001c6a:	1b40      	subs	r0, r0, r5
 8001c6c:	2802      	cmp	r0, #2
 8001c6e:	d9f6      	bls.n	8001c5e <HAL_RCC_OscConfig+0x142>
 8001c70:	e798      	b.n	8001ba4 <HAL_RCC_OscConfig+0x88>
 8001c72:	6962      	ldr	r2, [r4, #20]
 8001c74:	4b44      	ldr	r3, [pc, #272]	; (8001d88 <HAL_RCC_OscConfig+0x26c>)
 8001c76:	b182      	cbz	r2, 8001c9a <HAL_RCC_OscConfig+0x17e>
 8001c78:	2201      	movs	r2, #1
 8001c7a:	f8c3 2e80 	str.w	r2, [r3, #3712]	; 0xe80
 8001c7e:	f7ff fa9d 	bl	80011bc <HAL_GetTick>
 8001c82:	4e40      	ldr	r6, [pc, #256]	; (8001d84 <HAL_RCC_OscConfig+0x268>)
 8001c84:	4605      	mov	r5, r0
 8001c86:	6f73      	ldr	r3, [r6, #116]	; 0x74
 8001c88:	079f      	lsls	r7, r3, #30
 8001c8a:	f53f af55 	bmi.w	8001b38 <HAL_RCC_OscConfig+0x1c>
 8001c8e:	f7ff fa95 	bl	80011bc <HAL_GetTick>
 8001c92:	1b40      	subs	r0, r0, r5
 8001c94:	2802      	cmp	r0, #2
 8001c96:	d9f6      	bls.n	8001c86 <HAL_RCC_OscConfig+0x16a>
 8001c98:	e784      	b.n	8001ba4 <HAL_RCC_OscConfig+0x88>
 8001c9a:	f8c3 2e80 	str.w	r2, [r3, #3712]	; 0xe80
 8001c9e:	f7ff fa8d 	bl	80011bc <HAL_GetTick>
 8001ca2:	4e38      	ldr	r6, [pc, #224]	; (8001d84 <HAL_RCC_OscConfig+0x268>)
 8001ca4:	4605      	mov	r5, r0
 8001ca6:	6f73      	ldr	r3, [r6, #116]	; 0x74
 8001ca8:	0798      	lsls	r0, r3, #30
 8001caa:	f57f af45 	bpl.w	8001b38 <HAL_RCC_OscConfig+0x1c>
 8001cae:	f7ff fa85 	bl	80011bc <HAL_GetTick>
 8001cb2:	1b40      	subs	r0, r0, r5
 8001cb4:	2802      	cmp	r0, #2
 8001cb6:	d9f6      	bls.n	8001ca6 <HAL_RCC_OscConfig+0x18a>
 8001cb8:	e774      	b.n	8001ba4 <HAL_RCC_OscConfig+0x88>
 8001cba:	4b32      	ldr	r3, [pc, #200]	; (8001d84 <HAL_RCC_OscConfig+0x268>)
 8001cbc:	6c1a      	ldr	r2, [r3, #64]	; 0x40
 8001cbe:	f012 5280 	ands.w	r2, r2, #268435456	; 0x10000000
 8001cc2:	d128      	bne.n	8001d16 <HAL_RCC_OscConfig+0x1fa>
 8001cc4:	9201      	str	r2, [sp, #4]
 8001cc6:	6c1a      	ldr	r2, [r3, #64]	; 0x40
 8001cc8:	f042 5280 	orr.w	r2, r2, #268435456	; 0x10000000
 8001ccc:	641a      	str	r2, [r3, #64]	; 0x40
 8001cce:	6c1b      	ldr	r3, [r3, #64]	; 0x40
 8001cd0:	f003 5380 	and.w	r3, r3, #268435456	; 0x10000000
 8001cd4:	9301      	str	r3, [sp, #4]
 8001cd6:	9b01      	ldr	r3, [sp, #4]
 8001cd8:	2701      	movs	r7, #1
 8001cda:	4d2c      	ldr	r5, [pc, #176]	; (8001d8c <HAL_RCC_OscConfig+0x270>)
 8001cdc:	682b      	ldr	r3, [r5, #0]
 8001cde:	05d9      	lsls	r1, r3, #23
 8001ce0:	d51b      	bpl.n	8001d1a <HAL_RCC_OscConfig+0x1fe>
 8001ce2:	68a3      	ldr	r3, [r4, #8]
 8001ce4:	4d27      	ldr	r5, [pc, #156]	; (8001d84 <HAL_RCC_OscConfig+0x268>)
 8001ce6:	2b01      	cmp	r3, #1
 8001ce8:	d127      	bne.n	8001d3a <HAL_RCC_OscConfig+0x21e>
 8001cea:	6f2b      	ldr	r3, [r5, #112]	; 0x70
 8001cec:	f043 0301 	orr.w	r3, r3, #1
 8001cf0:	672b      	str	r3, [r5, #112]	; 0x70
 8001cf2:	f7ff fa63 	bl	80011bc <HAL_GetTick>
 8001cf6:	4e23      	ldr	r6, [pc, #140]	; (8001d84 <HAL_RCC_OscConfig+0x268>)
 8001cf8:	4605      	mov	r5, r0
 8001cfa:	f241 3888 	movw	r8, #5000	; 0x1388
 8001cfe:	6f33      	ldr	r3, [r6, #112]	; 0x70
 8001d00:	079b      	lsls	r3, r3, #30
 8001d02:	d539      	bpl.n	8001d78 <HAL_RCC_OscConfig+0x25c>
 8001d04:	2f00      	cmp	r7, #0
 8001d06:	f43f af1b 	beq.w	8001b40 <HAL_RCC_OscConfig+0x24>
 8001d0a:	4a1e      	ldr	r2, [pc, #120]	; (8001d84 <HAL_RCC_OscConfig+0x268>)
 8001d0c:	6c13      	ldr	r3, [r2, #64]	; 0x40
 8001d0e:	f023 5380 	bic.w	r3, r3, #268435456	; 0x10000000
 8001d12:	6413      	str	r3, [r2, #64]	; 0x40
 8001d14:	e714      	b.n	8001b40 <HAL_RCC_OscConfig+0x24>
 8001d16:	2700      	movs	r7, #0
 8001d18:	e7df      	b.n	8001cda <HAL_RCC_OscConfig+0x1be>
 8001d1a:	682b      	ldr	r3, [r5, #0]
 8001d1c:	f443 7380 	orr.w	r3, r3, #256	; 0x100
 8001d20:	602b      	str	r3, [r5, #0]
 8001d22:	f7ff fa4b 	bl	80011bc <HAL_GetTick>
 8001d26:	4606      	mov	r6, r0
 8001d28:	682b      	ldr	r3, [r5, #0]
 8001d2a:	05da      	lsls	r2, r3, #23
 8001d2c:	d4d9      	bmi.n	8001ce2 <HAL_RCC_OscConfig+0x1c6>
 8001d2e:	f7ff fa45 	bl	80011bc <HAL_GetTick>
 8001d32:	1b80      	subs	r0, r0, r6
 8001d34:	2802      	cmp	r0, #2
 8001d36:	d9f7      	bls.n	8001d28 <HAL_RCC_OscConfig+0x20c>
 8001d38:	e734      	b.n	8001ba4 <HAL_RCC_OscConfig+0x88>
 8001d3a:	2b05      	cmp	r3, #5
 8001d3c:	d104      	bne.n	8001d48 <HAL_RCC_OscConfig+0x22c>
 8001d3e:	6f2b      	ldr	r3, [r5, #112]	; 0x70
 8001d40:	f043 0304 	orr.w	r3, r3, #4
 8001d44:	672b      	str	r3, [r5, #112]	; 0x70
 8001d46:	e7d0      	b.n	8001cea <HAL_RCC_OscConfig+0x1ce>
 8001d48:	6f2a      	ldr	r2, [r5, #112]	; 0x70
 8001d4a:	f022 0201 	bic.w	r2, r2, #1
 8001d4e:	672a      	str	r2, [r5, #112]	; 0x70
 8001d50:	6f2a      	ldr	r2, [r5, #112]	; 0x70
 8001d52:	f022 0204 	bic.w	r2, r2, #4
 8001d56:	672a      	str	r2, [r5, #112]	; 0x70
 8001d58:	2b00      	cmp	r3, #0
 8001d5a:	d1ca      	bne.n	8001cf2 <HAL_RCC_OscConfig+0x1d6>
 8001d5c:	f7ff fa2e 	bl	80011bc <HAL_GetTick>
 8001d60:	f241 3888 	movw	r8, #5000	; 0x1388
 8001d64:	4606      	mov	r6, r0
 8001d66:	6f2b      	ldr	r3, [r5, #112]	; 0x70
 8001d68:	0798      	lsls	r0, r3, #30
 8001d6a:	d5cb      	bpl.n	8001d04 <HAL_RCC_OscConfig+0x1e8>
 8001d6c:	f7ff fa26 	bl	80011bc <HAL_GetTick>
 8001d70:	1b80      	subs	r0, r0, r6
 8001d72:	4540      	cmp	r0, r8
 8001d74:	d9f7      	bls.n	8001d66 <HAL_RCC_OscConfig+0x24a>
 8001d76:	e715      	b.n	8001ba4 <HAL_RCC_OscConfig+0x88>
 8001d78:	f7ff fa20 	bl	80011bc <HAL_GetTick>
 8001d7c:	1b40      	subs	r0, r0, r5
 8001d7e:	4540      	cmp	r0, r8
 8001d80:	d9bd      	bls.n	8001cfe <HAL_RCC_OscConfig+0x1e2>
 8001d82:	e70f      	b.n	8001ba4 <HAL_RCC_OscConfig+0x88>
 8001d84:	40023800 	.word	0x40023800
 8001d88:	42470000 	.word	0x42470000
 8001d8c:	40007000 	.word	0x40007000
 8001d90:	4d36      	ldr	r5, [pc, #216]	; (8001e6c <HAL_RCC_OscConfig+0x350>)
 8001d92:	68ab      	ldr	r3, [r5, #8]
 8001d94:	f003 030c 	and.w	r3, r3, #12
 8001d98:	2b08      	cmp	r3, #8
 8001d9a:	d03d      	beq.n	8001e18 <HAL_RCC_OscConfig+0x2fc>
 8001d9c:	4b34      	ldr	r3, [pc, #208]	; (8001e70 <HAL_RCC_OscConfig+0x354>)
 8001d9e:	2200      	movs	r2, #0
 8001da0:	2802      	cmp	r0, #2
 8001da2:	661a      	str	r2, [r3, #96]	; 0x60
 8001da4:	d12b      	bne.n	8001dfe <HAL_RCC_OscConfig+0x2e2>
 8001da6:	f7ff fa09 	bl	80011bc <HAL_GetTick>
 8001daa:	4606      	mov	r6, r0
 8001dac:	682b      	ldr	r3, [r5, #0]
 8001dae:	0199      	lsls	r1, r3, #6
 8001db0:	d41f      	bmi.n	8001df2 <HAL_RCC_OscConfig+0x2d6>
 8001db2:	e9d4 3207 	ldrd	r3, r2, [r4, #28]
 8001db6:	4313      	orrs	r3, r2
 8001db8:	6a62      	ldr	r2, [r4, #36]	; 0x24
 8001dba:	ea43 1382 	orr.w	r3, r3, r2, lsl #6
 8001dbe:	6ae2      	ldr	r2, [r4, #44]	; 0x2c
 8001dc0:	ea43 6302 	orr.w	r3, r3, r2, lsl #24
 8001dc4:	6aa2      	ldr	r2, [r4, #40]	; 0x28
 8001dc6:	0852      	lsrs	r2, r2, #1
 8001dc8:	3a01      	subs	r2, #1
 8001dca:	ea43 4302 	orr.w	r3, r3, r2, lsl #16
 8001dce:	606b      	str	r3, [r5, #4]
 8001dd0:	4b27      	ldr	r3, [pc, #156]	; (8001e70 <HAL_RCC_OscConfig+0x354>)
 8001dd2:	4d26      	ldr	r5, [pc, #152]	; (8001e6c <HAL_RCC_OscConfig+0x350>)
 8001dd4:	2201      	movs	r2, #1
 8001dd6:	661a      	str	r2, [r3, #96]	; 0x60
 8001dd8:	f7ff f9f0 	bl	80011bc <HAL_GetTick>
 8001ddc:	4604      	mov	r4, r0
 8001dde:	682b      	ldr	r3, [r5, #0]
 8001de0:	019a      	lsls	r2, r3, #6
 8001de2:	f53f aeb1 	bmi.w	8001b48 <HAL_RCC_OscConfig+0x2c>
 8001de6:	f7ff f9e9 	bl	80011bc <HAL_GetTick>
 8001dea:	1b00      	subs	r0, r0, r4
 8001dec:	2802      	cmp	r0, #2
 8001dee:	d9f6      	bls.n	8001dde <HAL_RCC_OscConfig+0x2c2>
 8001df0:	e6d8      	b.n	8001ba4 <HAL_RCC_OscConfig+0x88>
 8001df2:	f7ff f9e3 	bl	80011bc <HAL_GetTick>
 8001df6:	1b80      	subs	r0, r0, r6
 8001df8:	2802      	cmp	r0, #2
 8001dfa:	d9d7      	bls.n	8001dac <HAL_RCC_OscConfig+0x290>
 8001dfc:	e6d2      	b.n	8001ba4 <HAL_RCC_OscConfig+0x88>
 8001dfe:	f7ff f9dd 	bl	80011bc <HAL_GetTick>
 8001e02:	4604      	mov	r4, r0
 8001e04:	682b      	ldr	r3, [r5, #0]
 8001e06:	019b      	lsls	r3, r3, #6
 8001e08:	f57f ae9e 	bpl.w	8001b48 <HAL_RCC_OscConfig+0x2c>
 8001e0c:	f7ff f9d6 	bl	80011bc <HAL_GetTick>
 8001e10:	1b00      	subs	r0, r0, r4
 8001e12:	2802      	cmp	r0, #2
 8001e14:	d9f6      	bls.n	8001e04 <HAL_RCC_OscConfig+0x2e8>
 8001e16:	e6c5      	b.n	8001ba4 <HAL_RCC_OscConfig+0x88>
 8001e18:	2801      	cmp	r0, #1
 8001e1a:	f43f aec4 	beq.w	8001ba6 <HAL_RCC_OscConfig+0x8a>
 8001e1e:	686b      	ldr	r3, [r5, #4]
 8001e20:	69e2      	ldr	r2, [r4, #28]
 8001e22:	f403 0180 	and.w	r1, r3, #4194304	; 0x400000
 8001e26:	4291      	cmp	r1, r2
 8001e28:	f47f aea5 	bne.w	8001b76 <HAL_RCC_OscConfig+0x5a>
 8001e2c:	6a21      	ldr	r1, [r4, #32]
 8001e2e:	f003 023f 	and.w	r2, r3, #63	; 0x3f
 8001e32:	428a      	cmp	r2, r1
 8001e34:	f47f ae9f 	bne.w	8001b76 <HAL_RCC_OscConfig+0x5a>
 8001e38:	6a61      	ldr	r1, [r4, #36]	; 0x24
 8001e3a:	f647 72c0 	movw	r2, #32704	; 0x7fc0
 8001e3e:	401a      	ands	r2, r3
 8001e40:	ebb2 1f81 	cmp.w	r2, r1, lsl #6
 8001e44:	f47f ae97 	bne.w	8001b76 <HAL_RCC_OscConfig+0x5a>
 8001e48:	6aa2      	ldr	r2, [r4, #40]	; 0x28
 8001e4a:	0852      	lsrs	r2, r2, #1
 8001e4c:	f403 3140 	and.w	r1, r3, #196608	; 0x30000
 8001e50:	3a01      	subs	r2, #1
 8001e52:	ebb1 4f02 	cmp.w	r1, r2, lsl #16
 8001e56:	f47f ae8e 	bne.w	8001b76 <HAL_RCC_OscConfig+0x5a>
 8001e5a:	6ae2      	ldr	r2, [r4, #44]	; 0x2c
 8001e5c:	f003 6370 	and.w	r3, r3, #251658240	; 0xf000000
 8001e60:	ebb3 6f02 	cmp.w	r3, r2, lsl #24
 8001e64:	f43f ae70 	beq.w	8001b48 <HAL_RCC_OscConfig+0x2c>
 8001e68:	e685      	b.n	8001b76 <HAL_RCC_OscConfig+0x5a>
 8001e6a:	bf00      	nop
 8001e6c:	40023800 	.word	0x40023800
 8001e70:	42470000 	.word	0x42470000

08001e74 <HAL_RCC_GetSysClockFreq>:
 8001e74:	4914      	ldr	r1, [pc, #80]	; (8001ec8 <HAL_RCC_GetSysClockFreq+0x54>)
 8001e76:	688b      	ldr	r3, [r1, #8]
 8001e78:	f003 030c 	and.w	r3, r3, #12
 8001e7c:	2b08      	cmp	r3, #8
 8001e7e:	b510      	push	{r4, lr}
 8001e80:	d11f      	bne.n	8001ec2 <HAL_RCC_GetSysClockFreq+0x4e>
 8001e82:	684a      	ldr	r2, [r1, #4]
 8001e84:	684b      	ldr	r3, [r1, #4]
 8001e86:	4811      	ldr	r0, [pc, #68]	; (8001ecc <HAL_RCC_GetSysClockFreq+0x58>)
 8001e88:	f413 0380 	ands.w	r3, r3, #4194304	; 0x400000
 8001e8c:	bf15      	itete	ne
 8001e8e:	6849      	ldrne	r1, [r1, #4]
 8001e90:	684c      	ldreq	r4, [r1, #4]
 8001e92:	f3c1 1188 	ubfxne	r1, r1, #6, #9
 8001e96:	f3c4 1488 	ubfxeq	r4, r4, #6, #9
 8001e9a:	bf18      	it	ne
 8001e9c:	2300      	movne	r3, #0
 8001e9e:	f002 023f 	and.w	r2, r2, #63	; 0x3f
 8001ea2:	bf14      	ite	ne
 8001ea4:	fba1 0100 	umullne	r0, r1, r1, r0
 8001ea8:	fba4 0100 	umulleq	r0, r1, r4, r0
 8001eac:	f7fe f9e0 	bl	8000270 <__aeabi_uldivmod>
 8001eb0:	4b05      	ldr	r3, [pc, #20]	; (8001ec8 <HAL_RCC_GetSysClockFreq+0x54>)
 8001eb2:	685b      	ldr	r3, [r3, #4]
 8001eb4:	f3c3 4301 	ubfx	r3, r3, #16, #2
 8001eb8:	3301      	adds	r3, #1
 8001eba:	005b      	lsls	r3, r3, #1
 8001ebc:	fbb0 f0f3 	udiv	r0, r0, r3
 8001ec0:	bd10      	pop	{r4, pc}
 8001ec2:	4802      	ldr	r0, [pc, #8]	; (8001ecc <HAL_RCC_GetSysClockFreq+0x58>)
 8001ec4:	e7fc      	b.n	8001ec0 <HAL_RCC_GetSysClockFreq+0x4c>
 8001ec6:	bf00      	nop
 8001ec8:	40023800 	.word	0x40023800
 8001ecc:	00f42400 	.word	0x00f42400

08001ed0 <HAL_RCC_ClockConfig>:
 8001ed0:	e92d 41f0 	stmdb	sp!, {r4, r5, r6, r7, r8, lr}
 8001ed4:	460d      	mov	r5, r1
 8001ed6:	4604      	mov	r4, r0
 8001ed8:	b910      	cbnz	r0, 8001ee0 <HAL_RCC_ClockConfig+0x10>
 8001eda:	2001      	movs	r0, #1
 8001edc:	e8bd 81f0 	ldmia.w	sp!, {r4, r5, r6, r7, r8, pc}
 8001ee0:	4b43      	ldr	r3, [pc, #268]	; (8001ff0 <HAL_RCC_ClockConfig+0x120>)
 8001ee2:	681a      	ldr	r2, [r3, #0]
 8001ee4:	f002 0207 	and.w	r2, r2, #7
 8001ee8:	428a      	cmp	r2, r1
 8001eea:	d328      	bcc.n	8001f3e <HAL_RCC_ClockConfig+0x6e>
 8001eec:	6821      	ldr	r1, [r4, #0]
 8001eee:	078f      	lsls	r7, r1, #30
 8001ef0:	d42d      	bmi.n	8001f4e <HAL_RCC_ClockConfig+0x7e>
 8001ef2:	07c8      	lsls	r0, r1, #31
 8001ef4:	d440      	bmi.n	8001f78 <HAL_RCC_ClockConfig+0xa8>
 8001ef6:	4b3e      	ldr	r3, [pc, #248]	; (8001ff0 <HAL_RCC_ClockConfig+0x120>)
 8001ef8:	681a      	ldr	r2, [r3, #0]
 8001efa:	f002 0207 	and.w	r2, r2, #7
 8001efe:	42aa      	cmp	r2, r5
 8001f00:	d865      	bhi.n	8001fce <HAL_RCC_ClockConfig+0xfe>
 8001f02:	6822      	ldr	r2, [r4, #0]
 8001f04:	0751      	lsls	r1, r2, #29
 8001f06:	d46b      	bmi.n	8001fe0 <HAL_RCC_ClockConfig+0x110>
 8001f08:	0713      	lsls	r3, r2, #28
 8001f0a:	d507      	bpl.n	8001f1c <HAL_RCC_ClockConfig+0x4c>
 8001f0c:	4a39      	ldr	r2, [pc, #228]	; (8001ff4 <HAL_RCC_ClockConfig+0x124>)
 8001f0e:	6921      	ldr	r1, [r4, #16]
 8001f10:	6893      	ldr	r3, [r2, #8]
 8001f12:	f423 4360 	bic.w	r3, r3, #57344	; 0xe000
 8001f16:	ea43 03c1 	orr.w	r3, r3, r1, lsl #3
 8001f1a:	6093      	str	r3, [r2, #8]
 8001f1c:	f7ff ffaa 	bl	8001e74 <HAL_RCC_GetSysClockFreq>
 8001f20:	4b34      	ldr	r3, [pc, #208]	; (8001ff4 <HAL_RCC_ClockConfig+0x124>)
 8001f22:	4a35      	ldr	r2, [pc, #212]	; (8001ff8 <HAL_RCC_ClockConfig+0x128>)
 8001f24:	689b      	ldr	r3, [r3, #8]
 8001f26:	f3c3 1303 	ubfx	r3, r3, #4, #4
 8001f2a:	5cd3      	ldrb	r3, [r2, r3]
 8001f2c:	40d8      	lsrs	r0, r3
 8001f2e:	4b33      	ldr	r3, [pc, #204]	; (8001ffc <HAL_RCC_ClockConfig+0x12c>)
 8001f30:	6018      	str	r0, [r3, #0]
 8001f32:	4b33      	ldr	r3, [pc, #204]	; (8002000 <HAL_RCC_ClockConfig+0x130>)
 8001f34:	6818      	ldr	r0, [r3, #0]
 8001f36:	f7ff f8f7 	bl	8001128 <HAL_InitTick>
 8001f3a:	2000      	movs	r0, #0
 8001f3c:	e7ce      	b.n	8001edc <HAL_RCC_ClockConfig+0xc>
 8001f3e:	b2ca      	uxtb	r2, r1
 8001f40:	701a      	strb	r2, [r3, #0]
 8001f42:	681b      	ldr	r3, [r3, #0]
 8001f44:	f003 0307 	and.w	r3, r3, #7
 8001f48:	428b      	cmp	r3, r1
 8001f4a:	d1c6      	bne.n	8001eda <HAL_RCC_ClockConfig+0xa>
 8001f4c:	e7ce      	b.n	8001eec <HAL_RCC_ClockConfig+0x1c>
 8001f4e:	4b29      	ldr	r3, [pc, #164]	; (8001ff4 <HAL_RCC_ClockConfig+0x124>)
 8001f50:	f011 0f04 	tst.w	r1, #4
 8001f54:	bf1e      	ittt	ne
 8001f56:	689a      	ldrne	r2, [r3, #8]
 8001f58:	f442 52e0 	orrne.w	r2, r2, #7168	; 0x1c00
 8001f5c:	609a      	strne	r2, [r3, #8]
 8001f5e:	070e      	lsls	r6, r1, #28
 8001f60:	bf42      	ittt	mi
 8001f62:	689a      	ldrmi	r2, [r3, #8]
 8001f64:	f442 4260 	orrmi.w	r2, r2, #57344	; 0xe000
 8001f68:	609a      	strmi	r2, [r3, #8]
 8001f6a:	689a      	ldr	r2, [r3, #8]
 8001f6c:	68a0      	ldr	r0, [r4, #8]
 8001f6e:	f022 02f0 	bic.w	r2, r2, #240	; 0xf0
 8001f72:	4302      	orrs	r2, r0
 8001f74:	609a      	str	r2, [r3, #8]
 8001f76:	e7bc      	b.n	8001ef2 <HAL_RCC_ClockConfig+0x22>
 8001f78:	6862      	ldr	r2, [r4, #4]
 8001f7a:	4b1e      	ldr	r3, [pc, #120]	; (8001ff4 <HAL_RCC_ClockConfig+0x124>)
 8001f7c:	2a01      	cmp	r2, #1
 8001f7e:	d11c      	bne.n	8001fba <HAL_RCC_ClockConfig+0xea>
 8001f80:	681b      	ldr	r3, [r3, #0]
 8001f82:	f413 3f00 	tst.w	r3, #131072	; 0x20000
 8001f86:	d0a8      	beq.n	8001eda <HAL_RCC_ClockConfig+0xa>
 8001f88:	4e1a      	ldr	r6, [pc, #104]	; (8001ff4 <HAL_RCC_ClockConfig+0x124>)
 8001f8a:	68b3      	ldr	r3, [r6, #8]
 8001f8c:	f023 0303 	bic.w	r3, r3, #3
 8001f90:	4313      	orrs	r3, r2
 8001f92:	60b3      	str	r3, [r6, #8]
 8001f94:	f7ff f912 	bl	80011bc <HAL_GetTick>
 8001f98:	f241 3888 	movw	r8, #5000	; 0x1388
 8001f9c:	4607      	mov	r7, r0
 8001f9e:	68b3      	ldr	r3, [r6, #8]
 8001fa0:	6862      	ldr	r2, [r4, #4]
 8001fa2:	f003 030c 	and.w	r3, r3, #12
 8001fa6:	ebb3 0f82 	cmp.w	r3, r2, lsl #2
 8001faa:	d0a4      	beq.n	8001ef6 <HAL_RCC_ClockConfig+0x26>
 8001fac:	f7ff f906 	bl	80011bc <HAL_GetTick>
 8001fb0:	1bc0      	subs	r0, r0, r7
 8001fb2:	4540      	cmp	r0, r8
 8001fb4:	d9f3      	bls.n	8001f9e <HAL_RCC_ClockConfig+0xce>
 8001fb6:	2003      	movs	r0, #3
 8001fb8:	e790      	b.n	8001edc <HAL_RCC_ClockConfig+0xc>
 8001fba:	1e91      	subs	r1, r2, #2
 8001fbc:	2901      	cmp	r1, #1
 8001fbe:	681b      	ldr	r3, [r3, #0]
 8001fc0:	d802      	bhi.n	8001fc8 <HAL_RCC_ClockConfig+0xf8>
 8001fc2:	f013 7f00 	tst.w	r3, #33554432	; 0x2000000
 8001fc6:	e7de      	b.n	8001f86 <HAL_RCC_ClockConfig+0xb6>
 8001fc8:	f013 0f02 	tst.w	r3, #2
 8001fcc:	e7db      	b.n	8001f86 <HAL_RCC_ClockConfig+0xb6>
 8001fce:	b2ea      	uxtb	r2, r5
 8001fd0:	701a      	strb	r2, [r3, #0]
 8001fd2:	681b      	ldr	r3, [r3, #0]
 8001fd4:	f003 0307 	and.w	r3, r3, #7
 8001fd8:	42ab      	cmp	r3, r5
 8001fda:	f47f af7e 	bne.w	8001eda <HAL_RCC_ClockConfig+0xa>
 8001fde:	e790      	b.n	8001f02 <HAL_RCC_ClockConfig+0x32>
 8001fe0:	4904      	ldr	r1, [pc, #16]	; (8001ff4 <HAL_RCC_ClockConfig+0x124>)
 8001fe2:	68e0      	ldr	r0, [r4, #12]
 8001fe4:	688b      	ldr	r3, [r1, #8]
 8001fe6:	f423 53e0 	bic.w	r3, r3, #7168	; 0x1c00
 8001fea:	4303      	orrs	r3, r0
 8001fec:	608b      	str	r3, [r1, #8]
 8001fee:	e78b      	b.n	8001f08 <HAL_RCC_ClockConfig+0x38>
 8001ff0:	40023c00 	.word	0x40023c00
 8001ff4:	40023800 	.word	0x40023800
 8001ff8:	08003b98 	.word	0x08003b98
 8001ffc:	20000000 	.word	0x20000000
 8002000:	20000008 	.word	0x20000008

08002004 <HAL_RCC_GetPCLK1Freq>:
 8002004:	4b04      	ldr	r3, [pc, #16]	; (8002018 <HAL_RCC_GetPCLK1Freq+0x14>)
 8002006:	4a05      	ldr	r2, [pc, #20]	; (800201c <HAL_RCC_GetPCLK1Freq+0x18>)
 8002008:	689b      	ldr	r3, [r3, #8]
 800200a:	f3c3 2382 	ubfx	r3, r3, #10, #3
 800200e:	5cd3      	ldrb	r3, [r2, r3]
 8002010:	4a03      	ldr	r2, [pc, #12]	; (8002020 <HAL_RCC_GetPCLK1Freq+0x1c>)
 8002012:	6810      	ldr	r0, [r2, #0]
 8002014:	40d8      	lsrs	r0, r3
 8002016:	4770      	bx	lr
 8002018:	40023800 	.word	0x40023800
 800201c:	08003ba8 	.word	0x08003ba8
 8002020:	20000000 	.word	0x20000000

08002024 <HAL_RCC_GetPCLK2Freq>:
 8002024:	4b04      	ldr	r3, [pc, #16]	; (8002038 <HAL_RCC_GetPCLK2Freq+0x14>)
 8002026:	4a05      	ldr	r2, [pc, #20]	; (800203c <HAL_RCC_GetPCLK2Freq+0x18>)
 8002028:	689b      	ldr	r3, [r3, #8]
 800202a:	f3c3 3342 	ubfx	r3, r3, #13, #3
 800202e:	5cd3      	ldrb	r3, [r2, r3]
 8002030:	4a03      	ldr	r2, [pc, #12]	; (8002040 <HAL_RCC_GetPCLK2Freq+0x1c>)
 8002032:	6810      	ldr	r0, [r2, #0]
 8002034:	40d8      	lsrs	r0, r3
 8002036:	4770      	bx	lr
 8002038:	40023800 	.word	0x40023800
 800203c:	08003ba8 	.word	0x08003ba8
 8002040:	20000000 	.word	0x20000000

08002044 <HAL_RCC_CSSCallback>:
 8002044:	4770      	bx	lr
	...

08002048 <HAL_RCC_NMI_IRQHandler>:
 8002048:	b510      	push	{r4, lr}
 800204a:	4c04      	ldr	r4, [pc, #16]	; (800205c <HAL_RCC_NMI_IRQHandler+0x14>)
 800204c:	68e3      	ldr	r3, [r4, #12]
 800204e:	061b      	lsls	r3, r3, #24
 8002050:	d503      	bpl.n	800205a <HAL_RCC_NMI_IRQHandler+0x12>
 8002052:	f7ff fff7 	bl	8002044 <HAL_RCC_CSSCallback>
 8002056:	2380      	movs	r3, #128	; 0x80
 8002058:	73a3      	strb	r3, [r4, #14]
 800205a:	bd10      	pop	{r4, pc}
 800205c:	40023800 	.word	0x40023800

08002060 <HAL_SPI_Init>:
 8002060:	b510      	push	{r4, lr}
 8002062:	4604      	mov	r4, r0
 8002064:	2800      	cmp	r0, #0
 8002066:	d055      	beq.n	8002114 <HAL_SPI_Init+0xb4>
 8002068:	6a43      	ldr	r3, [r0, #36]	; 0x24
 800206a:	2b00      	cmp	r3, #0
 800206c:	d14e      	bne.n	800210c <HAL_SPI_Init+0xac>
 800206e:	6842      	ldr	r2, [r0, #4]
 8002070:	f5b2 7f82 	cmp.w	r2, #260	; 0x104
 8002074:	d000      	beq.n	8002078 <HAL_SPI_Init+0x18>
 8002076:	61c3      	str	r3, [r0, #28]
 8002078:	2300      	movs	r3, #0
 800207a:	62a3      	str	r3, [r4, #40]	; 0x28
 800207c:	f894 3051 	ldrb.w	r3, [r4, #81]	; 0x51
 8002080:	f003 02ff 	and.w	r2, r3, #255	; 0xff
 8002084:	b923      	cbnz	r3, 8002090 <HAL_SPI_Init+0x30>
 8002086:	f884 2050 	strb.w	r2, [r4, #80]	; 0x50
 800208a:	4620      	mov	r0, r4
 800208c:	f7fe fe1c 	bl	8000cc8 <HAL_SPI_MspInit>
 8002090:	6821      	ldr	r1, [r4, #0]
 8002092:	68a0      	ldr	r0, [r4, #8]
 8002094:	69a2      	ldr	r2, [r4, #24]
 8002096:	2302      	movs	r3, #2
 8002098:	f884 3051 	strb.w	r3, [r4, #81]	; 0x51
 800209c:	680b      	ldr	r3, [r1, #0]
 800209e:	f023 0340 	bic.w	r3, r3, #64	; 0x40
 80020a2:	600b      	str	r3, [r1, #0]
 80020a4:	6863      	ldr	r3, [r4, #4]
 80020a6:	f400 4004 	and.w	r0, r0, #33792	; 0x8400
 80020aa:	f403 7382 	and.w	r3, r3, #260	; 0x104
 80020ae:	4303      	orrs	r3, r0
 80020b0:	68e0      	ldr	r0, [r4, #12]
 80020b2:	f400 6000 	and.w	r0, r0, #2048	; 0x800
 80020b6:	4303      	orrs	r3, r0
 80020b8:	6920      	ldr	r0, [r4, #16]
 80020ba:	f000 0002 	and.w	r0, r0, #2
 80020be:	4303      	orrs	r3, r0
 80020c0:	6960      	ldr	r0, [r4, #20]
 80020c2:	f000 0001 	and.w	r0, r0, #1
 80020c6:	4303      	orrs	r3, r0
 80020c8:	f402 7000 	and.w	r0, r2, #512	; 0x200
 80020cc:	4303      	orrs	r3, r0
 80020ce:	69e0      	ldr	r0, [r4, #28]
 80020d0:	f000 0038 	and.w	r0, r0, #56	; 0x38
 80020d4:	4303      	orrs	r3, r0
 80020d6:	6a20      	ldr	r0, [r4, #32]
 80020d8:	f000 0080 	and.w	r0, r0, #128	; 0x80
 80020dc:	4303      	orrs	r3, r0
 80020de:	6aa0      	ldr	r0, [r4, #40]	; 0x28
 80020e0:	f400 5000 	and.w	r0, r0, #8192	; 0x2000
 80020e4:	4303      	orrs	r3, r0
 80020e6:	600b      	str	r3, [r1, #0]
 80020e8:	6a63      	ldr	r3, [r4, #36]	; 0x24
 80020ea:	0c12      	lsrs	r2, r2, #16
 80020ec:	f003 0310 	and.w	r3, r3, #16
 80020f0:	f002 0204 	and.w	r2, r2, #4
 80020f4:	431a      	orrs	r2, r3
 80020f6:	604a      	str	r2, [r1, #4]
 80020f8:	69cb      	ldr	r3, [r1, #28]
 80020fa:	f423 6300 	bic.w	r3, r3, #2048	; 0x800
 80020fe:	61cb      	str	r3, [r1, #28]
 8002100:	2000      	movs	r0, #0
 8002102:	2301      	movs	r3, #1
 8002104:	6560      	str	r0, [r4, #84]	; 0x54
 8002106:	f884 3051 	strb.w	r3, [r4, #81]	; 0x51
 800210a:	bd10      	pop	{r4, pc}
 800210c:	2300      	movs	r3, #0
 800210e:	e9c0 3304 	strd	r3, r3, [r0, #16]
 8002112:	e7b1      	b.n	8002078 <HAL_SPI_Init+0x18>
 8002114:	2001      	movs	r0, #1
 8002116:	e7f8      	b.n	800210a <HAL_SPI_Init+0xaa>

08002118 <TIM_OC1_SetConfig>:
 8002118:	6a03      	ldr	r3, [r0, #32]
 800211a:	f023 0301 	bic.w	r3, r3, #1
 800211e:	6203      	str	r3, [r0, #32]
 8002120:	6a03      	ldr	r3, [r0, #32]
 8002122:	b570      	push	{r4, r5, r6, lr}
 8002124:	6844      	ldr	r4, [r0, #4]
 8002126:	6982      	ldr	r2, [r0, #24]
 8002128:	680d      	ldr	r5, [r1, #0]
 800212a:	f022 0273 	bic.w	r2, r2, #115	; 0x73
 800212e:	432a      	orrs	r2, r5
 8002130:	688d      	ldr	r5, [r1, #8]
 8002132:	f023 0302 	bic.w	r3, r3, #2
 8002136:	432b      	orrs	r3, r5
 8002138:	4d0e      	ldr	r5, [pc, #56]	; (8002174 <TIM_OC1_SetConfig+0x5c>)
 800213a:	42a8      	cmp	r0, r5
 800213c:	d002      	beq.n	8002144 <TIM_OC1_SetConfig+0x2c>
 800213e:	4e0e      	ldr	r6, [pc, #56]	; (8002178 <TIM_OC1_SetConfig+0x60>)
 8002140:	42b0      	cmp	r0, r6
 8002142:	d110      	bne.n	8002166 <TIM_OC1_SetConfig+0x4e>
 8002144:	68ce      	ldr	r6, [r1, #12]
 8002146:	f023 0308 	bic.w	r3, r3, #8
 800214a:	4333      	orrs	r3, r6
 800214c:	42a8      	cmp	r0, r5
 800214e:	f023 0304 	bic.w	r3, r3, #4
 8002152:	d002      	beq.n	800215a <TIM_OC1_SetConfig+0x42>
 8002154:	4d08      	ldr	r5, [pc, #32]	; (8002178 <TIM_OC1_SetConfig+0x60>)
 8002156:	42a8      	cmp	r0, r5
 8002158:	d105      	bne.n	8002166 <TIM_OC1_SetConfig+0x4e>
 800215a:	e9d1 5605 	ldrd	r5, r6, [r1, #20]
 800215e:	f424 7440 	bic.w	r4, r4, #768	; 0x300
 8002162:	4335      	orrs	r5, r6
 8002164:	432c      	orrs	r4, r5
 8002166:	6044      	str	r4, [r0, #4]
 8002168:	6182      	str	r2, [r0, #24]
 800216a:	684a      	ldr	r2, [r1, #4]
 800216c:	6342      	str	r2, [r0, #52]	; 0x34
 800216e:	6203      	str	r3, [r0, #32]
 8002170:	bd70      	pop	{r4, r5, r6, pc}
 8002172:	bf00      	nop
 8002174:	40010000 	.word	0x40010000
 8002178:	40010400 	.word	0x40010400

0800217c <TIM_OC3_SetConfig>:
 800217c:	6a03      	ldr	r3, [r0, #32]
 800217e:	f423 7380 	bic.w	r3, r3, #256	; 0x100
 8002182:	6203      	str	r3, [r0, #32]
 8002184:	6a03      	ldr	r3, [r0, #32]
 8002186:	b570      	push	{r4, r5, r6, lr}
 8002188:	6844      	ldr	r4, [r0, #4]
 800218a:	69c2      	ldr	r2, [r0, #28]
 800218c:	680d      	ldr	r5, [r1, #0]
 800218e:	f022 0273 	bic.w	r2, r2, #115	; 0x73
 8002192:	432a      	orrs	r2, r5
 8002194:	688d      	ldr	r5, [r1, #8]
 8002196:	f423 7300 	bic.w	r3, r3, #512	; 0x200
 800219a:	ea43 2305 	orr.w	r3, r3, r5, lsl #8
 800219e:	4d11      	ldr	r5, [pc, #68]	; (80021e4 <TIM_OC3_SetConfig+0x68>)
 80021a0:	42a8      	cmp	r0, r5
 80021a2:	d003      	beq.n	80021ac <TIM_OC3_SetConfig+0x30>
 80021a4:	f505 6580 	add.w	r5, r5, #1024	; 0x400
 80021a8:	42a8      	cmp	r0, r5
 80021aa:	d114      	bne.n	80021d6 <TIM_OC3_SetConfig+0x5a>
 80021ac:	68cd      	ldr	r5, [r1, #12]
 80021ae:	f423 6300 	bic.w	r3, r3, #2048	; 0x800
 80021b2:	ea43 2305 	orr.w	r3, r3, r5, lsl #8
 80021b6:	4d0b      	ldr	r5, [pc, #44]	; (80021e4 <TIM_OC3_SetConfig+0x68>)
 80021b8:	42a8      	cmp	r0, r5
 80021ba:	f423 6380 	bic.w	r3, r3, #1024	; 0x400
 80021be:	d003      	beq.n	80021c8 <TIM_OC3_SetConfig+0x4c>
 80021c0:	f505 6580 	add.w	r5, r5, #1024	; 0x400
 80021c4:	42a8      	cmp	r0, r5
 80021c6:	d106      	bne.n	80021d6 <TIM_OC3_SetConfig+0x5a>
 80021c8:	e9d1 5605 	ldrd	r5, r6, [r1, #20]
 80021cc:	f424 5440 	bic.w	r4, r4, #12288	; 0x3000
 80021d0:	4335      	orrs	r5, r6
 80021d2:	ea44 1405 	orr.w	r4, r4, r5, lsl #4
 80021d6:	6044      	str	r4, [r0, #4]
 80021d8:	61c2      	str	r2, [r0, #28]
 80021da:	684a      	ldr	r2, [r1, #4]
 80021dc:	63c2      	str	r2, [r0, #60]	; 0x3c
 80021de:	6203      	str	r3, [r0, #32]
 80021e0:	bd70      	pop	{r4, r5, r6, pc}
 80021e2:	bf00      	nop
 80021e4:	40010000 	.word	0x40010000

080021e8 <TIM_OC4_SetConfig>:
 80021e8:	6a03      	ldr	r3, [r0, #32]
 80021ea:	f423 5380 	bic.w	r3, r3, #4096	; 0x1000
 80021ee:	6203      	str	r3, [r0, #32]
 80021f0:	6a03      	ldr	r3, [r0, #32]
 80021f2:	b530      	push	{r4, r5, lr}
 80021f4:	6844      	ldr	r4, [r0, #4]
 80021f6:	69c2      	ldr	r2, [r0, #28]
 80021f8:	680d      	ldr	r5, [r1, #0]
 80021fa:	f422 42e6 	bic.w	r2, r2, #29440	; 0x7300
 80021fe:	ea42 2205 	orr.w	r2, r2, r5, lsl #8
 8002202:	688d      	ldr	r5, [r1, #8]
 8002204:	f423 5300 	bic.w	r3, r3, #8192	; 0x2000
 8002208:	ea43 3305 	orr.w	r3, r3, r5, lsl #12
 800220c:	4d08      	ldr	r5, [pc, #32]	; (8002230 <TIM_OC4_SetConfig+0x48>)
 800220e:	42a8      	cmp	r0, r5
 8002210:	d003      	beq.n	800221a <TIM_OC4_SetConfig+0x32>
 8002212:	f505 6580 	add.w	r5, r5, #1024	; 0x400
 8002216:	42a8      	cmp	r0, r5
 8002218:	d104      	bne.n	8002224 <TIM_OC4_SetConfig+0x3c>
 800221a:	694d      	ldr	r5, [r1, #20]
 800221c:	f424 4480 	bic.w	r4, r4, #16384	; 0x4000
 8002220:	ea44 1485 	orr.w	r4, r4, r5, lsl #6
 8002224:	6044      	str	r4, [r0, #4]
 8002226:	61c2      	str	r2, [r0, #28]
 8002228:	684a      	ldr	r2, [r1, #4]
 800222a:	6402      	str	r2, [r0, #64]	; 0x40
 800222c:	6203      	str	r3, [r0, #32]
 800222e:	bd30      	pop	{r4, r5, pc}
 8002230:	40010000 	.word	0x40010000

08002234 <HAL_TIM_Encoder_Start>:
 8002234:	b530      	push	{r4, r5, lr}
 8002236:	4603      	mov	r3, r0
 8002238:	f890 003e 	ldrb.w	r0, [r0, #62]	; 0x3e
 800223c:	f893 203f 	ldrb.w	r2, [r3, #63]	; 0x3f
 8002240:	f893 5042 	ldrb.w	r5, [r3, #66]	; 0x42
 8002244:	f893 4043 	ldrb.w	r4, [r3, #67]	; 0x43
 8002248:	b2c0      	uxtb	r0, r0
 800224a:	b2d2      	uxtb	r2, r2
 800224c:	b2ed      	uxtb	r5, r5
 800224e:	b2e4      	uxtb	r4, r4
 8002250:	b9c1      	cbnz	r1, 8002284 <HAL_TIM_Encoder_Start+0x50>
 8002252:	2801      	cmp	r0, #1
 8002254:	d145      	bne.n	80022e2 <HAL_TIM_Encoder_Start+0xae>
 8002256:	2d01      	cmp	r5, #1
 8002258:	d113      	bne.n	8002282 <HAL_TIM_Encoder_Start+0x4e>
 800225a:	2202      	movs	r2, #2
 800225c:	f883 203e 	strb.w	r2, [r3, #62]	; 0x3e
 8002260:	f883 2042 	strb.w	r2, [r3, #66]	; 0x42
 8002264:	681a      	ldr	r2, [r3, #0]
 8002266:	6a11      	ldr	r1, [r2, #32]
 8002268:	f021 0101 	bic.w	r1, r1, #1
 800226c:	6211      	str	r1, [r2, #32]
 800226e:	6a11      	ldr	r1, [r2, #32]
 8002270:	f041 0101 	orr.w	r1, r1, #1
 8002274:	6211      	str	r1, [r2, #32]
 8002276:	681a      	ldr	r2, [r3, #0]
 8002278:	6813      	ldr	r3, [r2, #0]
 800227a:	f043 0301 	orr.w	r3, r3, #1
 800227e:	6013      	str	r3, [r2, #0]
 8002280:	2000      	movs	r0, #0
 8002282:	bd30      	pop	{r4, r5, pc}
 8002284:	2904      	cmp	r1, #4
 8002286:	d111      	bne.n	80022ac <HAL_TIM_Encoder_Start+0x78>
 8002288:	2a01      	cmp	r2, #1
 800228a:	d12a      	bne.n	80022e2 <HAL_TIM_Encoder_Start+0xae>
 800228c:	2c01      	cmp	r4, #1
 800228e:	d128      	bne.n	80022e2 <HAL_TIM_Encoder_Start+0xae>
 8002290:	2202      	movs	r2, #2
 8002292:	f883 203f 	strb.w	r2, [r3, #63]	; 0x3f
 8002296:	f883 2043 	strb.w	r2, [r3, #67]	; 0x43
 800229a:	681a      	ldr	r2, [r3, #0]
 800229c:	6a11      	ldr	r1, [r2, #32]
 800229e:	f021 0110 	bic.w	r1, r1, #16
 80022a2:	6211      	str	r1, [r2, #32]
 80022a4:	6a11      	ldr	r1, [r2, #32]
 80022a6:	f041 0110 	orr.w	r1, r1, #16
 80022aa:	e7e3      	b.n	8002274 <HAL_TIM_Encoder_Start+0x40>
 80022ac:	2801      	cmp	r0, #1
 80022ae:	d118      	bne.n	80022e2 <HAL_TIM_Encoder_Start+0xae>
 80022b0:	2a01      	cmp	r2, #1
 80022b2:	d1e6      	bne.n	8002282 <HAL_TIM_Encoder_Start+0x4e>
 80022b4:	2d01      	cmp	r5, #1
 80022b6:	d1e4      	bne.n	8002282 <HAL_TIM_Encoder_Start+0x4e>
 80022b8:	2c01      	cmp	r4, #1
 80022ba:	d1e2      	bne.n	8002282 <HAL_TIM_Encoder_Start+0x4e>
 80022bc:	2202      	movs	r2, #2
 80022be:	f883 203e 	strb.w	r2, [r3, #62]	; 0x3e
 80022c2:	f883 203f 	strb.w	r2, [r3, #63]	; 0x3f
 80022c6:	f883 2042 	strb.w	r2, [r3, #66]	; 0x42
 80022ca:	f883 2043 	strb.w	r2, [r3, #67]	; 0x43
 80022ce:	681a      	ldr	r2, [r3, #0]
 80022d0:	6a11      	ldr	r1, [r2, #32]
 80022d2:	f021 0101 	bic.w	r1, r1, #1
 80022d6:	6211      	str	r1, [r2, #32]
 80022d8:	6a11      	ldr	r1, [r2, #32]
 80022da:	f041 0101 	orr.w	r1, r1, #1
 80022de:	6211      	str	r1, [r2, #32]
 80022e0:	e7dc      	b.n	800229c <HAL_TIM_Encoder_Start+0x68>
 80022e2:	2001      	movs	r0, #1
 80022e4:	e7cd      	b.n	8002282 <HAL_TIM_Encoder_Start+0x4e>

080022e6 <HAL_TIM_PeriodElapsedCallback>:
 80022e6:	4770      	bx	lr

080022e8 <HAL_TIM_OC_DelayElapsedCallback>:
 80022e8:	4770      	bx	lr

080022ea <HAL_TIM_IC_CaptureCallback>:
 80022ea:	4770      	bx	lr

080022ec <HAL_TIM_PWM_PulseFinishedCallback>:
 80022ec:	4770      	bx	lr

080022ee <HAL_TIM_TriggerCallback>:
 80022ee:	4770      	bx	lr

080022f0 <HAL_TIM_IRQHandler>:
 80022f0:	6803      	ldr	r3, [r0, #0]
 80022f2:	691a      	ldr	r2, [r3, #16]
 80022f4:	0791      	lsls	r1, r2, #30
 80022f6:	b510      	push	{r4, lr}
 80022f8:	4604      	mov	r4, r0
 80022fa:	d50e      	bpl.n	800231a <HAL_TIM_IRQHandler+0x2a>
 80022fc:	68da      	ldr	r2, [r3, #12]
 80022fe:	0792      	lsls	r2, r2, #30
 8002300:	d50b      	bpl.n	800231a <HAL_TIM_IRQHandler+0x2a>
 8002302:	f06f 0202 	mvn.w	r2, #2
 8002306:	611a      	str	r2, [r3, #16]
 8002308:	2201      	movs	r2, #1
 800230a:	7702      	strb	r2, [r0, #28]
 800230c:	699b      	ldr	r3, [r3, #24]
 800230e:	079b      	lsls	r3, r3, #30
 8002310:	d077      	beq.n	8002402 <HAL_TIM_IRQHandler+0x112>
 8002312:	f7ff ffea 	bl	80022ea <HAL_TIM_IC_CaptureCallback>
 8002316:	2300      	movs	r3, #0
 8002318:	7723      	strb	r3, [r4, #28]
 800231a:	6823      	ldr	r3, [r4, #0]
 800231c:	691a      	ldr	r2, [r3, #16]
 800231e:	0750      	lsls	r0, r2, #29
 8002320:	d510      	bpl.n	8002344 <HAL_TIM_IRQHandler+0x54>
 8002322:	68da      	ldr	r2, [r3, #12]
 8002324:	0751      	lsls	r1, r2, #29
 8002326:	d50d      	bpl.n	8002344 <HAL_TIM_IRQHandler+0x54>
 8002328:	f06f 0204 	mvn.w	r2, #4
 800232c:	611a      	str	r2, [r3, #16]
 800232e:	2202      	movs	r2, #2
 8002330:	7722      	strb	r2, [r4, #28]
 8002332:	699b      	ldr	r3, [r3, #24]
 8002334:	f413 7f40 	tst.w	r3, #768	; 0x300
 8002338:	4620      	mov	r0, r4
 800233a:	d068      	beq.n	800240e <HAL_TIM_IRQHandler+0x11e>
 800233c:	f7ff ffd5 	bl	80022ea <HAL_TIM_IC_CaptureCallback>
 8002340:	2300      	movs	r3, #0
 8002342:	7723      	strb	r3, [r4, #28]
 8002344:	6823      	ldr	r3, [r4, #0]
 8002346:	691a      	ldr	r2, [r3, #16]
 8002348:	0712      	lsls	r2, r2, #28
 800234a:	d50f      	bpl.n	800236c <HAL_TIM_IRQHandler+0x7c>
 800234c:	68da      	ldr	r2, [r3, #12]
 800234e:	0710      	lsls	r0, r2, #28
 8002350:	d50c      	bpl.n	800236c <HAL_TIM_IRQHandler+0x7c>
 8002352:	f06f 0208 	mvn.w	r2, #8
 8002356:	611a      	str	r2, [r3, #16]
 8002358:	2204      	movs	r2, #4
 800235a:	7722      	strb	r2, [r4, #28]
 800235c:	69db      	ldr	r3, [r3, #28]
 800235e:	0799      	lsls	r1, r3, #30
 8002360:	4620      	mov	r0, r4
 8002362:	d05a      	beq.n	800241a <HAL_TIM_IRQHandler+0x12a>
 8002364:	f7ff ffc1 	bl	80022ea <HAL_TIM_IC_CaptureCallback>
 8002368:	2300      	movs	r3, #0
 800236a:	7723      	strb	r3, [r4, #28]
 800236c:	6823      	ldr	r3, [r4, #0]
 800236e:	691a      	ldr	r2, [r3, #16]
 8002370:	06d2      	lsls	r2, r2, #27
 8002372:	d510      	bpl.n	8002396 <HAL_TIM_IRQHandler+0xa6>
 8002374:	68da      	ldr	r2, [r3, #12]
 8002376:	06d0      	lsls	r0, r2, #27
 8002378:	d50d      	bpl.n	8002396 <HAL_TIM_IRQHandler+0xa6>
 800237a:	f06f 0210 	mvn.w	r2, #16
 800237e:	611a      	str	r2, [r3, #16]
 8002380:	2208      	movs	r2, #8
 8002382:	7722      	strb	r2, [r4, #28]
 8002384:	69db      	ldr	r3, [r3, #28]
 8002386:	f413 7f40 	tst.w	r3, #768	; 0x300
 800238a:	4620      	mov	r0, r4
 800238c:	d04b      	beq.n	8002426 <HAL_TIM_IRQHandler+0x136>
 800238e:	f7ff ffac 	bl	80022ea <HAL_TIM_IC_CaptureCallback>
 8002392:	2300      	movs	r3, #0
 8002394:	7723      	strb	r3, [r4, #28]
 8002396:	6823      	ldr	r3, [r4, #0]
 8002398:	691a      	ldr	r2, [r3, #16]
 800239a:	07d1      	lsls	r1, r2, #31
 800239c:	d508      	bpl.n	80023b0 <HAL_TIM_IRQHandler+0xc0>
 800239e:	68da      	ldr	r2, [r3, #12]
 80023a0:	07d2      	lsls	r2, r2, #31
 80023a2:	d505      	bpl.n	80023b0 <HAL_TIM_IRQHandler+0xc0>
 80023a4:	f06f 0201 	mvn.w	r2, #1
 80023a8:	611a      	str	r2, [r3, #16]
 80023aa:	4620      	mov	r0, r4
 80023ac:	f7ff ff9b 	bl	80022e6 <HAL_TIM_PeriodElapsedCallback>
 80023b0:	6823      	ldr	r3, [r4, #0]
 80023b2:	691a      	ldr	r2, [r3, #16]
 80023b4:	0610      	lsls	r0, r2, #24
 80023b6:	d508      	bpl.n	80023ca <HAL_TIM_IRQHandler+0xda>
 80023b8:	68da      	ldr	r2, [r3, #12]
 80023ba:	0611      	lsls	r1, r2, #24
 80023bc:	d505      	bpl.n	80023ca <HAL_TIM_IRQHandler+0xda>
 80023be:	f06f 0280 	mvn.w	r2, #128	; 0x80
 80023c2:	611a      	str	r2, [r3, #16]
 80023c4:	4620      	mov	r0, r4
 80023c6:	f000 fb2e 	bl	8002a26 <HAL_TIMEx_BreakCallback>
 80023ca:	6823      	ldr	r3, [r4, #0]
 80023cc:	691a      	ldr	r2, [r3, #16]
 80023ce:	0652      	lsls	r2, r2, #25
 80023d0:	d508      	bpl.n	80023e4 <HAL_TIM_IRQHandler+0xf4>
 80023d2:	68da      	ldr	r2, [r3, #12]
 80023d4:	0650      	lsls	r0, r2, #25
 80023d6:	d505      	bpl.n	80023e4 <HAL_TIM_IRQHandler+0xf4>
 80023d8:	f06f 0240 	mvn.w	r2, #64	; 0x40
 80023dc:	611a      	str	r2, [r3, #16]
 80023de:	4620      	mov	r0, r4
 80023e0:	f7ff ff85 	bl	80022ee <HAL_TIM_TriggerCallback>
 80023e4:	6823      	ldr	r3, [r4, #0]
 80023e6:	691a      	ldr	r2, [r3, #16]
 80023e8:	0691      	lsls	r1, r2, #26
 80023ea:	d522      	bpl.n	8002432 <HAL_TIM_IRQHandler+0x142>
 80023ec:	68da      	ldr	r2, [r3, #12]
 80023ee:	0692      	lsls	r2, r2, #26
 80023f0:	d51f      	bpl.n	8002432 <HAL_TIM_IRQHandler+0x142>
 80023f2:	f06f 0220 	mvn.w	r2, #32
 80023f6:	4620      	mov	r0, r4
 80023f8:	611a      	str	r2, [r3, #16]
 80023fa:	e8bd 4010 	ldmia.w	sp!, {r4, lr}
 80023fe:	f000 bb11 	b.w	8002a24 <HAL_TIMEx_CommutCallback>
 8002402:	f7ff ff71 	bl	80022e8 <HAL_TIM_OC_DelayElapsedCallback>
 8002406:	4620      	mov	r0, r4
 8002408:	f7ff ff70 	bl	80022ec <HAL_TIM_PWM_PulseFinishedCallback>
 800240c:	e783      	b.n	8002316 <HAL_TIM_IRQHandler+0x26>
 800240e:	f7ff ff6b 	bl	80022e8 <HAL_TIM_OC_DelayElapsedCallback>
 8002412:	4620      	mov	r0, r4
 8002414:	f7ff ff6a 	bl	80022ec <HAL_TIM_PWM_PulseFinishedCallback>
 8002418:	e792      	b.n	8002340 <HAL_TIM_IRQHandler+0x50>
 800241a:	f7ff ff65 	bl	80022e8 <HAL_TIM_OC_DelayElapsedCallback>
 800241e:	4620      	mov	r0, r4
 8002420:	f7ff ff64 	bl	80022ec <HAL_TIM_PWM_PulseFinishedCallback>
 8002424:	e7a0      	b.n	8002368 <HAL_TIM_IRQHandler+0x78>
 8002426:	f7ff ff5f 	bl	80022e8 <HAL_TIM_OC_DelayElapsedCallback>
 800242a:	4620      	mov	r0, r4
 800242c:	f7ff ff5e 	bl	80022ec <HAL_TIM_PWM_PulseFinishedCallback>
 8002430:	e7af      	b.n	8002392 <HAL_TIM_IRQHandler+0xa2>
 8002432:	bd10      	pop	{r4, pc}

08002434 <TIM_Base_SetConfig>:
 8002434:	4a30      	ldr	r2, [pc, #192]	; (80024f8 <TIM_Base_SetConfig+0xc4>)
 8002436:	6803      	ldr	r3, [r0, #0]
 8002438:	4290      	cmp	r0, r2
 800243a:	d012      	beq.n	8002462 <TIM_Base_SetConfig+0x2e>
 800243c:	f1b0 4f80 	cmp.w	r0, #1073741824	; 0x40000000
 8002440:	d00f      	beq.n	8002462 <TIM_Base_SetConfig+0x2e>
 8002442:	f5a2 427c 	sub.w	r2, r2, #64512	; 0xfc00
 8002446:	4290      	cmp	r0, r2
 8002448:	d00b      	beq.n	8002462 <TIM_Base_SetConfig+0x2e>
 800244a:	f502 6280 	add.w	r2, r2, #1024	; 0x400
 800244e:	4290      	cmp	r0, r2
 8002450:	d007      	beq.n	8002462 <TIM_Base_SetConfig+0x2e>
 8002452:	f502 6280 	add.w	r2, r2, #1024	; 0x400
 8002456:	4290      	cmp	r0, r2
 8002458:	d003      	beq.n	8002462 <TIM_Base_SetConfig+0x2e>
 800245a:	f502 4278 	add.w	r2, r2, #63488	; 0xf800
 800245e:	4290      	cmp	r0, r2
 8002460:	d119      	bne.n	8002496 <TIM_Base_SetConfig+0x62>
 8002462:	684a      	ldr	r2, [r1, #4]
 8002464:	f023 0370 	bic.w	r3, r3, #112	; 0x70
 8002468:	4313      	orrs	r3, r2
 800246a:	4a23      	ldr	r2, [pc, #140]	; (80024f8 <TIM_Base_SetConfig+0xc4>)
 800246c:	4290      	cmp	r0, r2
 800246e:	d029      	beq.n	80024c4 <TIM_Base_SetConfig+0x90>
 8002470:	f1b0 4f80 	cmp.w	r0, #1073741824	; 0x40000000
 8002474:	d026      	beq.n	80024c4 <TIM_Base_SetConfig+0x90>
 8002476:	f5a2 427c 	sub.w	r2, r2, #64512	; 0xfc00
 800247a:	4290      	cmp	r0, r2
 800247c:	d022      	beq.n	80024c4 <TIM_Base_SetConfig+0x90>
 800247e:	f502 6280 	add.w	r2, r2, #1024	; 0x400
 8002482:	4290      	cmp	r0, r2
 8002484:	d01e      	beq.n	80024c4 <TIM_Base_SetConfig+0x90>
 8002486:	f502 6280 	add.w	r2, r2, #1024	; 0x400
 800248a:	4290      	cmp	r0, r2
 800248c:	d01a      	beq.n	80024c4 <TIM_Base_SetConfig+0x90>
 800248e:	f502 4278 	add.w	r2, r2, #63488	; 0xf800
 8002492:	4290      	cmp	r0, r2
 8002494:	d016      	beq.n	80024c4 <TIM_Base_SetConfig+0x90>
 8002496:	4a19      	ldr	r2, [pc, #100]	; (80024fc <TIM_Base_SetConfig+0xc8>)
 8002498:	4290      	cmp	r0, r2
 800249a:	d013      	beq.n	80024c4 <TIM_Base_SetConfig+0x90>
 800249c:	f502 6280 	add.w	r2, r2, #1024	; 0x400
 80024a0:	4290      	cmp	r0, r2
 80024a2:	d00f      	beq.n	80024c4 <TIM_Base_SetConfig+0x90>
 80024a4:	f502 6280 	add.w	r2, r2, #1024	; 0x400
 80024a8:	4290      	cmp	r0, r2
 80024aa:	d00b      	beq.n	80024c4 <TIM_Base_SetConfig+0x90>
 80024ac:	f5a2 3298 	sub.w	r2, r2, #77824	; 0x13000
 80024b0:	4290      	cmp	r0, r2
 80024b2:	d007      	beq.n	80024c4 <TIM_Base_SetConfig+0x90>
 80024b4:	f502 6280 	add.w	r2, r2, #1024	; 0x400
 80024b8:	4290      	cmp	r0, r2
 80024ba:	d003      	beq.n	80024c4 <TIM_Base_SetConfig+0x90>
 80024bc:	f502 6280 	add.w	r2, r2, #1024	; 0x400
 80024c0:	4290      	cmp	r0, r2
 80024c2:	d103      	bne.n	80024cc <TIM_Base_SetConfig+0x98>
 80024c4:	68ca      	ldr	r2, [r1, #12]
 80024c6:	f423 7340 	bic.w	r3, r3, #768	; 0x300
 80024ca:	4313      	orrs	r3, r2
 80024cc:	694a      	ldr	r2, [r1, #20]
 80024ce:	f023 0380 	bic.w	r3, r3, #128	; 0x80
 80024d2:	4313      	orrs	r3, r2
 80024d4:	6003      	str	r3, [r0, #0]
 80024d6:	688b      	ldr	r3, [r1, #8]
 80024d8:	62c3      	str	r3, [r0, #44]	; 0x2c
 80024da:	680b      	ldr	r3, [r1, #0]
 80024dc:	6283      	str	r3, [r0, #40]	; 0x28
 80024de:	4b06      	ldr	r3, [pc, #24]	; (80024f8 <TIM_Base_SetConfig+0xc4>)
 80024e0:	4298      	cmp	r0, r3
 80024e2:	d003      	beq.n	80024ec <TIM_Base_SetConfig+0xb8>
 80024e4:	f503 6380 	add.w	r3, r3, #1024	; 0x400
 80024e8:	4298      	cmp	r0, r3
 80024ea:	d101      	bne.n	80024f0 <TIM_Base_SetConfig+0xbc>
 80024ec:	690b      	ldr	r3, [r1, #16]
 80024ee:	6303      	str	r3, [r0, #48]	; 0x30
 80024f0:	2301      	movs	r3, #1
 80024f2:	6143      	str	r3, [r0, #20]
 80024f4:	4770      	bx	lr
 80024f6:	bf00      	nop
 80024f8:	40010000 	.word	0x40010000
 80024fc:	40014000 	.word	0x40014000

08002500 <HAL_TIM_Base_Init>:
 8002500:	b510      	push	{r4, lr}
 8002502:	4604      	mov	r4, r0
 8002504:	b330      	cbz	r0, 8002554 <HAL_TIM_Base_Init+0x54>
 8002506:	f890 303d 	ldrb.w	r3, [r0, #61]	; 0x3d
 800250a:	f003 02ff 	and.w	r2, r3, #255	; 0xff
 800250e:	b91b      	cbnz	r3, 8002518 <HAL_TIM_Base_Init+0x18>
 8002510:	f880 203c 	strb.w	r2, [r0, #60]	; 0x3c
 8002514:	f7fe fc80 	bl	8000e18 <HAL_TIM_Base_MspInit>
 8002518:	2302      	movs	r3, #2
 800251a:	6820      	ldr	r0, [r4, #0]
 800251c:	f884 303d 	strb.w	r3, [r4, #61]	; 0x3d
 8002520:	1d21      	adds	r1, r4, #4
 8002522:	f7ff ff87 	bl	8002434 <TIM_Base_SetConfig>
 8002526:	2301      	movs	r3, #1
 8002528:	f884 3046 	strb.w	r3, [r4, #70]	; 0x46
 800252c:	2000      	movs	r0, #0
 800252e:	f884 303e 	strb.w	r3, [r4, #62]	; 0x3e
 8002532:	f884 303f 	strb.w	r3, [r4, #63]	; 0x3f
 8002536:	f884 3040 	strb.w	r3, [r4, #64]	; 0x40
 800253a:	f884 3041 	strb.w	r3, [r4, #65]	; 0x41
 800253e:	f884 3042 	strb.w	r3, [r4, #66]	; 0x42
 8002542:	f884 3043 	strb.w	r3, [r4, #67]	; 0x43
 8002546:	f884 3044 	strb.w	r3, [r4, #68]	; 0x44
 800254a:	f884 3045 	strb.w	r3, [r4, #69]	; 0x45
 800254e:	f884 303d 	strb.w	r3, [r4, #61]	; 0x3d
 8002552:	bd10      	pop	{r4, pc}
 8002554:	2001      	movs	r0, #1
 8002556:	e7fc      	b.n	8002552 <HAL_TIM_Base_Init+0x52>

08002558 <HAL_TIM_PWM_Init>:
 8002558:	b510      	push	{r4, lr}
 800255a:	4604      	mov	r4, r0
 800255c:	b330      	cbz	r0, 80025ac <HAL_TIM_PWM_Init+0x54>
 800255e:	f890 303d 	ldrb.w	r3, [r0, #61]	; 0x3d
 8002562:	f003 02ff 	and.w	r2, r3, #255	; 0xff
 8002566:	b91b      	cbnz	r3, 8002570 <HAL_TIM_PWM_Init+0x18>
 8002568:	f880 203c 	strb.w	r2, [r0, #60]	; 0x3c
 800256c:	f7fe fc0c 	bl	8000d88 <HAL_TIM_PWM_MspInit>
 8002570:	2302      	movs	r3, #2
 8002572:	6820      	ldr	r0, [r4, #0]
 8002574:	f884 303d 	strb.w	r3, [r4, #61]	; 0x3d
 8002578:	1d21      	adds	r1, r4, #4
 800257a:	f7ff ff5b 	bl	8002434 <TIM_Base_SetConfig>
 800257e:	2301      	movs	r3, #1
 8002580:	f884 3046 	strb.w	r3, [r4, #70]	; 0x46
 8002584:	2000      	movs	r0, #0
 8002586:	f884 303e 	strb.w	r3, [r4, #62]	; 0x3e
 800258a:	f884 303f 	strb.w	r3, [r4, #63]	; 0x3f
 800258e:	f884 3040 	strb.w	r3, [r4, #64]	; 0x40
 8002592:	f884 3041 	strb.w	r3, [r4, #65]	; 0x41
 8002596:	f884 3042 	strb.w	r3, [r4, #66]	; 0x42
 800259a:	f884 3043 	strb.w	r3, [r4, #67]	; 0x43
 800259e:	f884 3044 	strb.w	r3, [r4, #68]	; 0x44
 80025a2:	f884 3045 	strb.w	r3, [r4, #69]	; 0x45
 80025a6:	f884 303d 	strb.w	r3, [r4, #61]	; 0x3d
 80025aa:	bd10      	pop	{r4, pc}
 80025ac:	2001      	movs	r0, #1
 80025ae:	e7fc      	b.n	80025aa <HAL_TIM_PWM_Init+0x52>

080025b0 <HAL_TIM_Encoder_Init>:
 80025b0:	b5f8      	push	{r3, r4, r5, r6, r7, lr}
 80025b2:	460d      	mov	r5, r1
 80025b4:	4604      	mov	r4, r0
 80025b6:	2800      	cmp	r0, #0
 80025b8:	d04c      	beq.n	8002654 <HAL_TIM_Encoder_Init+0xa4>
 80025ba:	f890 303d 	ldrb.w	r3, [r0, #61]	; 0x3d
 80025be:	f003 02ff 	and.w	r2, r3, #255	; 0xff
 80025c2:	b91b      	cbnz	r3, 80025cc <HAL_TIM_Encoder_Init+0x1c>
 80025c4:	f880 203c 	strb.w	r2, [r0, #60]	; 0x3c
 80025c8:	f7fe fc6c 	bl	8000ea4 <HAL_TIM_Encoder_MspInit>
 80025cc:	4621      	mov	r1, r4
 80025ce:	2302      	movs	r3, #2
 80025d0:	f884 303d 	strb.w	r3, [r4, #61]	; 0x3d
 80025d4:	f851 0b04 	ldr.w	r0, [r1], #4
 80025d8:	6883      	ldr	r3, [r0, #8]
 80025da:	f423 4380 	bic.w	r3, r3, #16384	; 0x4000
 80025de:	f023 0307 	bic.w	r3, r3, #7
 80025e2:	6083      	str	r3, [r0, #8]
 80025e4:	f7ff ff26 	bl	8002434 <TIM_Base_SetConfig>
 80025e8:	6881      	ldr	r1, [r0, #8]
 80025ea:	682a      	ldr	r2, [r5, #0]
 80025ec:	6983      	ldr	r3, [r0, #24]
 80025ee:	69ae      	ldr	r6, [r5, #24]
 80025f0:	6a07      	ldr	r7, [r0, #32]
 80025f2:	4311      	orrs	r1, r2
 80025f4:	68aa      	ldr	r2, [r5, #8]
 80025f6:	f423 7340 	bic.w	r3, r3, #768	; 0x300
 80025fa:	f023 0303 	bic.w	r3, r3, #3
 80025fe:	ea42 2206 	orr.w	r2, r2, r6, lsl #8
 8002602:	431a      	orrs	r2, r3
 8002604:	692b      	ldr	r3, [r5, #16]
 8002606:	69ee      	ldr	r6, [r5, #28]
 8002608:	011b      	lsls	r3, r3, #4
 800260a:	ea43 2306 	orr.w	r3, r3, r6, lsl #8
 800260e:	68ee      	ldr	r6, [r5, #12]
 8002610:	4333      	orrs	r3, r6
 8002612:	6a2e      	ldr	r6, [r5, #32]
 8002614:	f422 427c 	bic.w	r2, r2, #64512	; 0xfc00
 8002618:	f022 02fc 	bic.w	r2, r2, #252	; 0xfc
 800261c:	ea43 3306 	orr.w	r3, r3, r6, lsl #12
 8002620:	4313      	orrs	r3, r2
 8002622:	696e      	ldr	r6, [r5, #20]
 8002624:	686a      	ldr	r2, [r5, #4]
 8002626:	6081      	str	r1, [r0, #8]
 8002628:	f027 07aa 	bic.w	r7, r7, #170	; 0xaa
 800262c:	ea42 1206 	orr.w	r2, r2, r6, lsl #4
 8002630:	6183      	str	r3, [r0, #24]
 8002632:	4317      	orrs	r7, r2
 8002634:	2301      	movs	r3, #1
 8002636:	6207      	str	r7, [r0, #32]
 8002638:	f884 3046 	strb.w	r3, [r4, #70]	; 0x46
 800263c:	2000      	movs	r0, #0
 800263e:	f884 303e 	strb.w	r3, [r4, #62]	; 0x3e
 8002642:	f884 303f 	strb.w	r3, [r4, #63]	; 0x3f
 8002646:	f884 3042 	strb.w	r3, [r4, #66]	; 0x42
 800264a:	f884 3043 	strb.w	r3, [r4, #67]	; 0x43
 800264e:	f884 303d 	strb.w	r3, [r4, #61]	; 0x3d
 8002652:	bdf8      	pop	{r3, r4, r5, r6, r7, pc}
 8002654:	2001      	movs	r0, #1
 8002656:	e7fc      	b.n	8002652 <HAL_TIM_Encoder_Init+0xa2>

08002658 <TIM_OC2_SetConfig>:
 8002658:	6a03      	ldr	r3, [r0, #32]
 800265a:	f023 0310 	bic.w	r3, r3, #16
 800265e:	6203      	str	r3, [r0, #32]
 8002660:	6a03      	ldr	r3, [r0, #32]
 8002662:	b570      	push	{r4, r5, r6, lr}
 8002664:	6844      	ldr	r4, [r0, #4]
 8002666:	6982      	ldr	r2, [r0, #24]
 8002668:	680d      	ldr	r5, [r1, #0]
 800266a:	f422 42e6 	bic.w	r2, r2, #29440	; 0x7300
 800266e:	ea42 2205 	orr.w	r2, r2, r5, lsl #8
 8002672:	688d      	ldr	r5, [r1, #8]
 8002674:	f023 0320 	bic.w	r3, r3, #32
 8002678:	ea43 1305 	orr.w	r3, r3, r5, lsl #4
 800267c:	4d10      	ldr	r5, [pc, #64]	; (80026c0 <TIM_OC2_SetConfig+0x68>)
 800267e:	42a8      	cmp	r0, r5
 8002680:	d003      	beq.n	800268a <TIM_OC2_SetConfig+0x32>
 8002682:	f505 6580 	add.w	r5, r5, #1024	; 0x400
 8002686:	42a8      	cmp	r0, r5
 8002688:	d114      	bne.n	80026b4 <TIM_OC2_SetConfig+0x5c>
 800268a:	68cd      	ldr	r5, [r1, #12]
 800268c:	f023 0380 	bic.w	r3, r3, #128	; 0x80
 8002690:	ea43 1305 	orr.w	r3, r3, r5, lsl #4
 8002694:	4d0a      	ldr	r5, [pc, #40]	; (80026c0 <TIM_OC2_SetConfig+0x68>)
 8002696:	42a8      	cmp	r0, r5
 8002698:	f023 0340 	bic.w	r3, r3, #64	; 0x40
 800269c:	d003      	beq.n	80026a6 <TIM_OC2_SetConfig+0x4e>
 800269e:	f505 6580 	add.w	r5, r5, #1024	; 0x400
 80026a2:	42a8      	cmp	r0, r5
 80026a4:	d106      	bne.n	80026b4 <TIM_OC2_SetConfig+0x5c>
 80026a6:	e9d1 5605 	ldrd	r5, r6, [r1, #20]
 80026aa:	f424 6440 	bic.w	r4, r4, #3072	; 0xc00
 80026ae:	4335      	orrs	r5, r6
 80026b0:	ea44 0485 	orr.w	r4, r4, r5, lsl #2
 80026b4:	6044      	str	r4, [r0, #4]
 80026b6:	6182      	str	r2, [r0, #24]
 80026b8:	684a      	ldr	r2, [r1, #4]
 80026ba:	6382      	str	r2, [r0, #56]	; 0x38
 80026bc:	6203      	str	r3, [r0, #32]
 80026be:	bd70      	pop	{r4, r5, r6, pc}
 80026c0:	40010000 	.word	0x40010000

080026c4 <HAL_TIM_PWM_ConfigChannel>:
 80026c4:	b570      	push	{r4, r5, r6, lr}
 80026c6:	f890 303c 	ldrb.w	r3, [r0, #60]	; 0x3c
 80026ca:	2b01      	cmp	r3, #1
 80026cc:	4605      	mov	r5, r0
 80026ce:	d050      	beq.n	8002772 <HAL_TIM_PWM_ConfigChannel+0xae>
 80026d0:	2301      	movs	r3, #1
 80026d2:	2a08      	cmp	r2, #8
 80026d4:	f880 303c 	strb.w	r3, [r0, #60]	; 0x3c
 80026d8:	d03b      	beq.n	8002752 <HAL_TIM_PWM_ConfigChannel+0x8e>
 80026da:	d807      	bhi.n	80026ec <HAL_TIM_PWM_ConfigChannel+0x28>
 80026dc:	b1c2      	cbz	r2, 8002710 <HAL_TIM_PWM_ConfigChannel+0x4c>
 80026de:	2a04      	cmp	r2, #4
 80026e0:	d027      	beq.n	8002732 <HAL_TIM_PWM_ConfigChannel+0x6e>
 80026e2:	4618      	mov	r0, r3
 80026e4:	2300      	movs	r3, #0
 80026e6:	f885 303c 	strb.w	r3, [r5, #60]	; 0x3c
 80026ea:	bd70      	pop	{r4, r5, r6, pc}
 80026ec:	2a0c      	cmp	r2, #12
 80026ee:	d1f8      	bne.n	80026e2 <HAL_TIM_PWM_ConfigChannel+0x1e>
 80026f0:	6800      	ldr	r0, [r0, #0]
 80026f2:	f7ff fd79 	bl	80021e8 <TIM_OC4_SetConfig>
 80026f6:	69c3      	ldr	r3, [r0, #28]
 80026f8:	690a      	ldr	r2, [r1, #16]
 80026fa:	f443 6300 	orr.w	r3, r3, #2048	; 0x800
 80026fe:	61c3      	str	r3, [r0, #28]
 8002700:	69c3      	ldr	r3, [r0, #28]
 8002702:	f423 6380 	bic.w	r3, r3, #1024	; 0x400
 8002706:	61c3      	str	r3, [r0, #28]
 8002708:	69c3      	ldr	r3, [r0, #28]
 800270a:	ea43 2302 	orr.w	r3, r3, r2, lsl #8
 800270e:	e02e      	b.n	800276e <HAL_TIM_PWM_ConfigChannel+0xaa>
 8002710:	6800      	ldr	r0, [r0, #0]
 8002712:	f7ff fd01 	bl	8002118 <TIM_OC1_SetConfig>
 8002716:	6983      	ldr	r3, [r0, #24]
 8002718:	690a      	ldr	r2, [r1, #16]
 800271a:	f043 0308 	orr.w	r3, r3, #8
 800271e:	6183      	str	r3, [r0, #24]
 8002720:	6983      	ldr	r3, [r0, #24]
 8002722:	f023 0304 	bic.w	r3, r3, #4
 8002726:	6183      	str	r3, [r0, #24]
 8002728:	6983      	ldr	r3, [r0, #24]
 800272a:	4313      	orrs	r3, r2
 800272c:	6183      	str	r3, [r0, #24]
 800272e:	2000      	movs	r0, #0
 8002730:	e7d8      	b.n	80026e4 <HAL_TIM_PWM_ConfigChannel+0x20>
 8002732:	6800      	ldr	r0, [r0, #0]
 8002734:	f7ff ff90 	bl	8002658 <TIM_OC2_SetConfig>
 8002738:	6983      	ldr	r3, [r0, #24]
 800273a:	690a      	ldr	r2, [r1, #16]
 800273c:	f443 6300 	orr.w	r3, r3, #2048	; 0x800
 8002740:	6183      	str	r3, [r0, #24]
 8002742:	6983      	ldr	r3, [r0, #24]
 8002744:	f423 6380 	bic.w	r3, r3, #1024	; 0x400
 8002748:	6183      	str	r3, [r0, #24]
 800274a:	6983      	ldr	r3, [r0, #24]
 800274c:	ea43 2302 	orr.w	r3, r3, r2, lsl #8
 8002750:	e7ec      	b.n	800272c <HAL_TIM_PWM_ConfigChannel+0x68>
 8002752:	6800      	ldr	r0, [r0, #0]
 8002754:	f7ff fd12 	bl	800217c <TIM_OC3_SetConfig>
 8002758:	69c3      	ldr	r3, [r0, #28]
 800275a:	690a      	ldr	r2, [r1, #16]
 800275c:	f043 0308 	orr.w	r3, r3, #8
 8002760:	61c3      	str	r3, [r0, #28]
 8002762:	69c3      	ldr	r3, [r0, #28]
 8002764:	f023 0304 	bic.w	r3, r3, #4
 8002768:	61c3      	str	r3, [r0, #28]
 800276a:	69c3      	ldr	r3, [r0, #28]
 800276c:	4313      	orrs	r3, r2
 800276e:	61c3      	str	r3, [r0, #28]
 8002770:	e7dd      	b.n	800272e <HAL_TIM_PWM_ConfigChannel+0x6a>
 8002772:	2002      	movs	r0, #2
 8002774:	e7b9      	b.n	80026ea <HAL_TIM_PWM_ConfigChannel+0x26>

08002776 <TIM_ETR_SetConfig>:
 8002776:	b510      	push	{r4, lr}
 8002778:	6884      	ldr	r4, [r0, #8]
 800277a:	4311      	orrs	r1, r2
 800277c:	f424 447f 	bic.w	r4, r4, #65280	; 0xff00
 8002780:	ea41 2303 	orr.w	r3, r1, r3, lsl #8
 8002784:	4323      	orrs	r3, r4
 8002786:	6083      	str	r3, [r0, #8]
 8002788:	bd10      	pop	{r4, pc}

0800278a <HAL_TIM_ConfigClockSource>:
 800278a:	b538      	push	{r3, r4, r5, lr}
 800278c:	f890 303c 	ldrb.w	r3, [r0, #60]	; 0x3c
 8002790:	2b01      	cmp	r3, #1
 8002792:	4604      	mov	r4, r0
 8002794:	f04f 0302 	mov.w	r3, #2
 8002798:	f000 808e 	beq.w	80028b8 <HAL_TIM_ConfigClockSource+0x12e>
 800279c:	2201      	movs	r2, #1
 800279e:	f880 303d 	strb.w	r3, [r0, #61]	; 0x3d
 80027a2:	f880 203c 	strb.w	r2, [r0, #60]	; 0x3c
 80027a6:	6800      	ldr	r0, [r0, #0]
 80027a8:	6883      	ldr	r3, [r0, #8]
 80027aa:	f423 437f 	bic.w	r3, r3, #65280	; 0xff00
 80027ae:	f023 0377 	bic.w	r3, r3, #119	; 0x77
 80027b2:	6083      	str	r3, [r0, #8]
 80027b4:	680b      	ldr	r3, [r1, #0]
 80027b6:	2b60      	cmp	r3, #96	; 0x60
 80027b8:	d04f      	beq.n	800285a <HAL_TIM_ConfigClockSource+0xd0>
 80027ba:	d832      	bhi.n	8002822 <HAL_TIM_ConfigClockSource+0x98>
 80027bc:	2b40      	cmp	r3, #64	; 0x40
 80027be:	d064      	beq.n	800288a <HAL_TIM_ConfigClockSource+0x100>
 80027c0:	d816      	bhi.n	80027f0 <HAL_TIM_ConfigClockSource+0x66>
 80027c2:	2b20      	cmp	r3, #32
 80027c4:	d00d      	beq.n	80027e2 <HAL_TIM_ConfigClockSource+0x58>
 80027c6:	d80a      	bhi.n	80027de <HAL_TIM_ConfigClockSource+0x54>
 80027c8:	f033 0110 	bics.w	r1, r3, #16
 80027cc:	d009      	beq.n	80027e2 <HAL_TIM_ConfigClockSource+0x58>
 80027ce:	2301      	movs	r3, #1
 80027d0:	f884 303d 	strb.w	r3, [r4, #61]	; 0x3d
 80027d4:	2300      	movs	r3, #0
 80027d6:	f884 303c 	strb.w	r3, [r4, #60]	; 0x3c
 80027da:	4610      	mov	r0, r2
 80027dc:	bd38      	pop	{r3, r4, r5, pc}
 80027de:	2b30      	cmp	r3, #48	; 0x30
 80027e0:	d1f5      	bne.n	80027ce <HAL_TIM_ConfigClockSource+0x44>
 80027e2:	6882      	ldr	r2, [r0, #8]
 80027e4:	f022 0270 	bic.w	r2, r2, #112	; 0x70
 80027e8:	4313      	orrs	r3, r2
 80027ea:	f043 0307 	orr.w	r3, r3, #7
 80027ee:	e028      	b.n	8002842 <HAL_TIM_ConfigClockSource+0xb8>
 80027f0:	2b50      	cmp	r3, #80	; 0x50
 80027f2:	d1ec      	bne.n	80027ce <HAL_TIM_ConfigClockSource+0x44>
 80027f4:	684a      	ldr	r2, [r1, #4]
 80027f6:	68cd      	ldr	r5, [r1, #12]
 80027f8:	6a01      	ldr	r1, [r0, #32]
 80027fa:	6a03      	ldr	r3, [r0, #32]
 80027fc:	f023 0301 	bic.w	r3, r3, #1
 8002800:	6203      	str	r3, [r0, #32]
 8002802:	6983      	ldr	r3, [r0, #24]
 8002804:	f021 010a 	bic.w	r1, r1, #10
 8002808:	f023 03f0 	bic.w	r3, r3, #240	; 0xf0
 800280c:	ea43 1305 	orr.w	r3, r3, r5, lsl #4
 8002810:	430a      	orrs	r2, r1
 8002812:	6183      	str	r3, [r0, #24]
 8002814:	6202      	str	r2, [r0, #32]
 8002816:	6883      	ldr	r3, [r0, #8]
 8002818:	f023 0370 	bic.w	r3, r3, #112	; 0x70
 800281c:	f043 0357 	orr.w	r3, r3, #87	; 0x57
 8002820:	e00f      	b.n	8002842 <HAL_TIM_ConfigClockSource+0xb8>
 8002822:	f5b3 5f80 	cmp.w	r3, #4096	; 0x1000
 8002826:	d00d      	beq.n	8002844 <HAL_TIM_ConfigClockSource+0xba>
 8002828:	f5b3 5f00 	cmp.w	r3, #8192	; 0x2000
 800282c:	d00c      	beq.n	8002848 <HAL_TIM_ConfigClockSource+0xbe>
 800282e:	2b70      	cmp	r3, #112	; 0x70
 8002830:	d1cd      	bne.n	80027ce <HAL_TIM_ConfigClockSource+0x44>
 8002832:	68cb      	ldr	r3, [r1, #12]
 8002834:	e9d1 2101 	ldrd	r2, r1, [r1, #4]
 8002838:	f7ff ff9d 	bl	8002776 <TIM_ETR_SetConfig>
 800283c:	6883      	ldr	r3, [r0, #8]
 800283e:	f043 0377 	orr.w	r3, r3, #119	; 0x77
 8002842:	6083      	str	r3, [r0, #8]
 8002844:	2200      	movs	r2, #0
 8002846:	e7c2      	b.n	80027ce <HAL_TIM_ConfigClockSource+0x44>
 8002848:	68cb      	ldr	r3, [r1, #12]
 800284a:	e9d1 2101 	ldrd	r2, r1, [r1, #4]
 800284e:	f7ff ff92 	bl	8002776 <TIM_ETR_SetConfig>
 8002852:	6883      	ldr	r3, [r0, #8]
 8002854:	f443 4380 	orr.w	r3, r3, #16384	; 0x4000
 8002858:	e7f3      	b.n	8002842 <HAL_TIM_ConfigClockSource+0xb8>
 800285a:	6a03      	ldr	r3, [r0, #32]
 800285c:	684d      	ldr	r5, [r1, #4]
 800285e:	68c9      	ldr	r1, [r1, #12]
 8002860:	f023 0310 	bic.w	r3, r3, #16
 8002864:	6203      	str	r3, [r0, #32]
 8002866:	6982      	ldr	r2, [r0, #24]
 8002868:	6a03      	ldr	r3, [r0, #32]
 800286a:	f422 4270 	bic.w	r2, r2, #61440	; 0xf000
 800286e:	f023 03a0 	bic.w	r3, r3, #160	; 0xa0
 8002872:	ea43 1305 	orr.w	r3, r3, r5, lsl #4
 8002876:	ea42 3201 	orr.w	r2, r2, r1, lsl #12
 800287a:	6182      	str	r2, [r0, #24]
 800287c:	6203      	str	r3, [r0, #32]
 800287e:	6883      	ldr	r3, [r0, #8]
 8002880:	f023 0370 	bic.w	r3, r3, #112	; 0x70
 8002884:	f043 0367 	orr.w	r3, r3, #103	; 0x67
 8002888:	e7db      	b.n	8002842 <HAL_TIM_ConfigClockSource+0xb8>
 800288a:	684a      	ldr	r2, [r1, #4]
 800288c:	68cd      	ldr	r5, [r1, #12]
 800288e:	6a01      	ldr	r1, [r0, #32]
 8002890:	6a03      	ldr	r3, [r0, #32]
 8002892:	f023 0301 	bic.w	r3, r3, #1
 8002896:	6203      	str	r3, [r0, #32]
 8002898:	6983      	ldr	r3, [r0, #24]
 800289a:	f021 010a 	bic.w	r1, r1, #10
 800289e:	f023 03f0 	bic.w	r3, r3, #240	; 0xf0
 80028a2:	ea43 1305 	orr.w	r3, r3, r5, lsl #4
 80028a6:	430a      	orrs	r2, r1
 80028a8:	6183      	str	r3, [r0, #24]
 80028aa:	6202      	str	r2, [r0, #32]
 80028ac:	6883      	ldr	r3, [r0, #8]
 80028ae:	f023 0370 	bic.w	r3, r3, #112	; 0x70
 80028b2:	f043 0347 	orr.w	r3, r3, #71	; 0x47
 80028b6:	e7c4      	b.n	8002842 <HAL_TIM_ConfigClockSource+0xb8>
 80028b8:	461a      	mov	r2, r3
 80028ba:	e78e      	b.n	80027da <HAL_TIM_ConfigClockSource+0x50>

080028bc <TIM_CCxChannelCmd>:
 80028bc:	6a03      	ldr	r3, [r0, #32]
 80028be:	f001 011f 	and.w	r1, r1, #31
 80028c2:	b510      	push	{r4, lr}
 80028c4:	2401      	movs	r4, #1
 80028c6:	408c      	lsls	r4, r1
 80028c8:	ea23 0304 	bic.w	r3, r3, r4
 80028cc:	6203      	str	r3, [r0, #32]
 80028ce:	6a03      	ldr	r3, [r0, #32]
 80028d0:	408a      	lsls	r2, r1
 80028d2:	431a      	orrs	r2, r3
 80028d4:	6202      	str	r2, [r0, #32]
 80028d6:	bd10      	pop	{r4, pc}

080028d8 <HAL_TIM_OC_Start>:
 80028d8:	b508      	push	{r3, lr}
 80028da:	b929      	cbnz	r1, 80028e8 <HAL_TIM_OC_Start+0x10>
 80028dc:	f890 303e 	ldrb.w	r3, [r0, #62]	; 0x3e
 80028e0:	2b01      	cmp	r3, #1
 80028e2:	d018      	beq.n	8002916 <HAL_TIM_OC_Start+0x3e>
 80028e4:	2001      	movs	r0, #1
 80028e6:	e02c      	b.n	8002942 <HAL_TIM_OC_Start+0x6a>
 80028e8:	2904      	cmp	r1, #4
 80028ea:	d10d      	bne.n	8002908 <HAL_TIM_OC_Start+0x30>
 80028ec:	f890 303f 	ldrb.w	r3, [r0, #63]	; 0x3f
 80028f0:	3b01      	subs	r3, #1
 80028f2:	bf18      	it	ne
 80028f4:	2301      	movne	r3, #1
 80028f6:	2b00      	cmp	r3, #0
 80028f8:	d1f4      	bne.n	80028e4 <HAL_TIM_OC_Start+0xc>
 80028fa:	2904      	cmp	r1, #4
 80028fc:	f04f 0302 	mov.w	r3, #2
 8002900:	d120      	bne.n	8002944 <HAL_TIM_OC_Start+0x6c>
 8002902:	f880 303f 	strb.w	r3, [r0, #63]	; 0x3f
 8002906:	e009      	b.n	800291c <HAL_TIM_OC_Start+0x44>
 8002908:	2908      	cmp	r1, #8
 800290a:	bf0c      	ite	eq
 800290c:	f890 3040 	ldrbeq.w	r3, [r0, #64]	; 0x40
 8002910:	f890 3041 	ldrbne.w	r3, [r0, #65]	; 0x41
 8002914:	e7ec      	b.n	80028f0 <HAL_TIM_OC_Start+0x18>
 8002916:	2302      	movs	r3, #2
 8002918:	f880 303e 	strb.w	r3, [r0, #62]	; 0x3e
 800291c:	6800      	ldr	r0, [r0, #0]
 800291e:	2201      	movs	r2, #1
 8002920:	f7ff ffcc 	bl	80028bc <TIM_CCxChannelCmd>
 8002924:	4a1c      	ldr	r2, [pc, #112]	; (8002998 <HAL_TIM_OC_Start+0xc0>)
 8002926:	4290      	cmp	r0, r2
 8002928:	d013      	beq.n	8002952 <HAL_TIM_OC_Start+0x7a>
 800292a:	4b1c      	ldr	r3, [pc, #112]	; (800299c <HAL_TIM_OC_Start+0xc4>)
 800292c:	4298      	cmp	r0, r3
 800292e:	d010      	beq.n	8002952 <HAL_TIM_OC_Start+0x7a>
 8002930:	f1b0 4f80 	cmp.w	r0, #1073741824	; 0x40000000
 8002934:	d114      	bne.n	8002960 <HAL_TIM_OC_Start+0x88>
 8002936:	6883      	ldr	r3, [r0, #8]
 8002938:	f003 0307 	and.w	r3, r3, #7
 800293c:	2b06      	cmp	r3, #6
 800293e:	d126      	bne.n	800298e <HAL_TIM_OC_Start+0xb6>
 8002940:	2000      	movs	r0, #0
 8002942:	bd08      	pop	{r3, pc}
 8002944:	2908      	cmp	r1, #8
 8002946:	bf0c      	ite	eq
 8002948:	f880 3040 	strbeq.w	r3, [r0, #64]	; 0x40
 800294c:	f880 3041 	strbne.w	r3, [r0, #65]	; 0x41
 8002950:	e7e4      	b.n	800291c <HAL_TIM_OC_Start+0x44>
 8002952:	6c43      	ldr	r3, [r0, #68]	; 0x44
 8002954:	4290      	cmp	r0, r2
 8002956:	f443 4300 	orr.w	r3, r3, #32768	; 0x8000
 800295a:	6443      	str	r3, [r0, #68]	; 0x44
 800295c:	d0eb      	beq.n	8002936 <HAL_TIM_OC_Start+0x5e>
 800295e:	e7e7      	b.n	8002930 <HAL_TIM_OC_Start+0x58>
 8002960:	4b0f      	ldr	r3, [pc, #60]	; (80029a0 <HAL_TIM_OC_Start+0xc8>)
 8002962:	4298      	cmp	r0, r3
 8002964:	d0e7      	beq.n	8002936 <HAL_TIM_OC_Start+0x5e>
 8002966:	f503 6380 	add.w	r3, r3, #1024	; 0x400
 800296a:	4298      	cmp	r0, r3
 800296c:	d0e3      	beq.n	8002936 <HAL_TIM_OC_Start+0x5e>
 800296e:	f503 6380 	add.w	r3, r3, #1024	; 0x400
 8002972:	4298      	cmp	r0, r3
 8002974:	d0df      	beq.n	8002936 <HAL_TIM_OC_Start+0x5e>
 8002976:	f503 4378 	add.w	r3, r3, #63488	; 0xf800
 800297a:	4298      	cmp	r0, r3
 800297c:	d0db      	beq.n	8002936 <HAL_TIM_OC_Start+0x5e>
 800297e:	f503 5370 	add.w	r3, r3, #15360	; 0x3c00
 8002982:	4298      	cmp	r0, r3
 8002984:	d0d7      	beq.n	8002936 <HAL_TIM_OC_Start+0x5e>
 8002986:	f5a3 3394 	sub.w	r3, r3, #75776	; 0x12800
 800298a:	4298      	cmp	r0, r3
 800298c:	d0d3      	beq.n	8002936 <HAL_TIM_OC_Start+0x5e>
 800298e:	6803      	ldr	r3, [r0, #0]
 8002990:	f043 0301 	orr.w	r3, r3, #1
 8002994:	6003      	str	r3, [r0, #0]
 8002996:	e7d3      	b.n	8002940 <HAL_TIM_OC_Start+0x68>
 8002998:	40010000 	.word	0x40010000
 800299c:	40010400 	.word	0x40010400
 80029a0:	40000400 	.word	0x40000400

080029a4 <HAL_TIM_PWM_Start>:
 80029a4:	f7ff bf98 	b.w	80028d8 <HAL_TIM_OC_Start>

080029a8 <HAL_TIMEx_MasterConfigSynchronization>:
 80029a8:	b530      	push	{r4, r5, lr}
 80029aa:	f890 303c 	ldrb.w	r3, [r0, #60]	; 0x3c
 80029ae:	2b01      	cmp	r3, #1
 80029b0:	f04f 0302 	mov.w	r3, #2
 80029b4:	d032      	beq.n	8002a1c <HAL_TIMEx_MasterConfigSynchronization+0x74>
 80029b6:	f880 303d 	strb.w	r3, [r0, #61]	; 0x3d
 80029ba:	6803      	ldr	r3, [r0, #0]
 80029bc:	680d      	ldr	r5, [r1, #0]
 80029be:	685c      	ldr	r4, [r3, #4]
 80029c0:	689a      	ldr	r2, [r3, #8]
 80029c2:	f024 0470 	bic.w	r4, r4, #112	; 0x70
 80029c6:	432c      	orrs	r4, r5
 80029c8:	605c      	str	r4, [r3, #4]
 80029ca:	4c15      	ldr	r4, [pc, #84]	; (8002a20 <HAL_TIMEx_MasterConfigSynchronization+0x78>)
 80029cc:	42a3      	cmp	r3, r4
 80029ce:	d01a      	beq.n	8002a06 <HAL_TIMEx_MasterConfigSynchronization+0x5e>
 80029d0:	f1b3 4f80 	cmp.w	r3, #1073741824	; 0x40000000
 80029d4:	d017      	beq.n	8002a06 <HAL_TIMEx_MasterConfigSynchronization+0x5e>
 80029d6:	f5a4 447c 	sub.w	r4, r4, #64512	; 0xfc00
 80029da:	42a3      	cmp	r3, r4
 80029dc:	d013      	beq.n	8002a06 <HAL_TIMEx_MasterConfigSynchronization+0x5e>
 80029de:	f504 6480 	add.w	r4, r4, #1024	; 0x400
 80029e2:	42a3      	cmp	r3, r4
 80029e4:	d00f      	beq.n	8002a06 <HAL_TIMEx_MasterConfigSynchronization+0x5e>
 80029e6:	f504 6480 	add.w	r4, r4, #1024	; 0x400
 80029ea:	42a3      	cmp	r3, r4
 80029ec:	d00b      	beq.n	8002a06 <HAL_TIMEx_MasterConfigSynchronization+0x5e>
 80029ee:	f504 4478 	add.w	r4, r4, #63488	; 0xf800
 80029f2:	42a3      	cmp	r3, r4
 80029f4:	d007      	beq.n	8002a06 <HAL_TIMEx_MasterConfigSynchronization+0x5e>
 80029f6:	f504 5470 	add.w	r4, r4, #15360	; 0x3c00
 80029fa:	42a3      	cmp	r3, r4
 80029fc:	d003      	beq.n	8002a06 <HAL_TIMEx_MasterConfigSynchronization+0x5e>
 80029fe:	f5a4 3494 	sub.w	r4, r4, #75776	; 0x12800
 8002a02:	42a3      	cmp	r3, r4
 8002a04:	d104      	bne.n	8002a10 <HAL_TIMEx_MasterConfigSynchronization+0x68>
 8002a06:	6849      	ldr	r1, [r1, #4]
 8002a08:	f022 0280 	bic.w	r2, r2, #128	; 0x80
 8002a0c:	430a      	orrs	r2, r1
 8002a0e:	609a      	str	r2, [r3, #8]
 8002a10:	2301      	movs	r3, #1
 8002a12:	f880 303d 	strb.w	r3, [r0, #61]	; 0x3d
 8002a16:	2300      	movs	r3, #0
 8002a18:	f880 303c 	strb.w	r3, [r0, #60]	; 0x3c
 8002a1c:	4618      	mov	r0, r3
 8002a1e:	bd30      	pop	{r4, r5, pc}
 8002a20:	40010000 	.word	0x40010000

08002a24 <HAL_TIMEx_CommutCallback>:
 8002a24:	4770      	bx	lr

08002a26 <HAL_TIMEx_BreakCallback>:
 8002a26:	4770      	bx	lr

08002a28 <UART_SetConfig>:
 8002a28:	6802      	ldr	r2, [r0, #0]
 8002a2a:	68c1      	ldr	r1, [r0, #12]
 8002a2c:	6913      	ldr	r3, [r2, #16]
 8002a2e:	f423 5340 	bic.w	r3, r3, #12288	; 0x3000
 8002a32:	430b      	orrs	r3, r1
 8002a34:	b570      	push	{r4, r5, r6, lr}
 8002a36:	6113      	str	r3, [r2, #16]
 8002a38:	4605      	mov	r5, r0
 8002a3a:	6883      	ldr	r3, [r0, #8]
 8002a3c:	6900      	ldr	r0, [r0, #16]
 8002a3e:	68d1      	ldr	r1, [r2, #12]
 8002a40:	4303      	orrs	r3, r0
 8002a42:	6968      	ldr	r0, [r5, #20]
 8002a44:	4303      	orrs	r3, r0
 8002a46:	69e8      	ldr	r0, [r5, #28]
 8002a48:	f421 4116 	bic.w	r1, r1, #38400	; 0x9600
 8002a4c:	f021 010c 	bic.w	r1, r1, #12
 8002a50:	4303      	orrs	r3, r0
 8002a52:	430b      	orrs	r3, r1
 8002a54:	60d3      	str	r3, [r2, #12]
 8002a56:	6953      	ldr	r3, [r2, #20]
 8002a58:	69a9      	ldr	r1, [r5, #24]
 8002a5a:	f423 7340 	bic.w	r3, r3, #768	; 0x300
 8002a5e:	430b      	orrs	r3, r1
 8002a60:	6153      	str	r3, [r2, #20]
 8002a62:	4b1f      	ldr	r3, [pc, #124]	; (8002ae0 <UART_SetConfig+0xb8>)
 8002a64:	429a      	cmp	r2, r3
 8002a66:	d003      	beq.n	8002a70 <UART_SetConfig+0x48>
 8002a68:	f503 6380 	add.w	r3, r3, #1024	; 0x400
 8002a6c:	429a      	cmp	r2, r3
 8002a6e:	d123      	bne.n	8002ab8 <UART_SetConfig+0x90>
 8002a70:	f7ff fad8 	bl	8002024 <HAL_RCC_GetPCLK2Freq>
 8002a74:	69eb      	ldr	r3, [r5, #28]
 8002a76:	2119      	movs	r1, #25
 8002a78:	f5b3 4f00 	cmp.w	r3, #32768	; 0x8000
 8002a7c:	e9d5 4600 	ldrd	r4, r6, [r5]
 8002a80:	fba0 0101 	umull	r0, r1, r0, r1
 8002a84:	d11b      	bne.n	8002abe <UART_SetConfig+0x96>
 8002a86:	19b2      	adds	r2, r6, r6
 8002a88:	f04f 0300 	mov.w	r3, #0
 8002a8c:	415b      	adcs	r3, r3
 8002a8e:	f7fd fbef 	bl	8000270 <__aeabi_uldivmod>
 8002a92:	2264      	movs	r2, #100	; 0x64
 8002a94:	fbb0 f1f2 	udiv	r1, r0, r2
 8002a98:	fb02 0311 	mls	r3, r2, r1, r0
 8002a9c:	00db      	lsls	r3, r3, #3
 8002a9e:	3332      	adds	r3, #50	; 0x32
 8002aa0:	fbb3 f3f2 	udiv	r3, r3, r2
 8002aa4:	f003 0207 	and.w	r2, r3, #7
 8002aa8:	005b      	lsls	r3, r3, #1
 8002aaa:	eb02 1201 	add.w	r2, r2, r1, lsl #4
 8002aae:	f403 73f8 	and.w	r3, r3, #496	; 0x1f0
 8002ab2:	4413      	add	r3, r2
 8002ab4:	60a3      	str	r3, [r4, #8]
 8002ab6:	bd70      	pop	{r4, r5, r6, pc}
 8002ab8:	f7ff faa4 	bl	8002004 <HAL_RCC_GetPCLK1Freq>
 8002abc:	e7da      	b.n	8002a74 <UART_SetConfig+0x4c>
 8002abe:	00b2      	lsls	r2, r6, #2
 8002ac0:	0fb3      	lsrs	r3, r6, #30
 8002ac2:	f7fd fbd5 	bl	8000270 <__aeabi_uldivmod>
 8002ac6:	2264      	movs	r2, #100	; 0x64
 8002ac8:	fbb0 f1f2 	udiv	r1, r0, r2
 8002acc:	fb02 0311 	mls	r3, r2, r1, r0
 8002ad0:	011b      	lsls	r3, r3, #4
 8002ad2:	3332      	adds	r3, #50	; 0x32
 8002ad4:	fbb3 f3f2 	udiv	r3, r3, r2
 8002ad8:	eb03 1301 	add.w	r3, r3, r1, lsl #4
 8002adc:	e7ea      	b.n	8002ab4 <UART_SetConfig+0x8c>
 8002ade:	bf00      	nop
 8002ae0:	40011000 	.word	0x40011000

08002ae4 <HAL_UART_Init>:
 8002ae4:	b510      	push	{r4, lr}
 8002ae6:	4604      	mov	r4, r0
 8002ae8:	b340      	cbz	r0, 8002b3c <HAL_UART_Init+0x58>
 8002aea:	f890 303d 	ldrb.w	r3, [r0, #61]	; 0x3d
 8002aee:	f003 02ff 	and.w	r2, r3, #255	; 0xff
 8002af2:	b91b      	cbnz	r3, 8002afc <HAL_UART_Init+0x18>
 8002af4:	f880 203c 	strb.w	r2, [r0, #60]	; 0x3c
 8002af8:	f7fe fa4a 	bl	8000f90 <HAL_UART_MspInit>
 8002afc:	6822      	ldr	r2, [r4, #0]
 8002afe:	2324      	movs	r3, #36	; 0x24
 8002b00:	f884 303d 	strb.w	r3, [r4, #61]	; 0x3d
 8002b04:	68d3      	ldr	r3, [r2, #12]
 8002b06:	f423 5300 	bic.w	r3, r3, #8192	; 0x2000
 8002b0a:	60d3      	str	r3, [r2, #12]
 8002b0c:	4620      	mov	r0, r4
 8002b0e:	f7ff ff8b 	bl	8002a28 <UART_SetConfig>
 8002b12:	6823      	ldr	r3, [r4, #0]
 8002b14:	691a      	ldr	r2, [r3, #16]
 8002b16:	f422 4290 	bic.w	r2, r2, #18432	; 0x4800
 8002b1a:	611a      	str	r2, [r3, #16]
 8002b1c:	695a      	ldr	r2, [r3, #20]
 8002b1e:	f022 022a 	bic.w	r2, r2, #42	; 0x2a
 8002b22:	615a      	str	r2, [r3, #20]
 8002b24:	68da      	ldr	r2, [r3, #12]
 8002b26:	f442 5200 	orr.w	r2, r2, #8192	; 0x2000
 8002b2a:	60da      	str	r2, [r3, #12]
 8002b2c:	2000      	movs	r0, #0
 8002b2e:	2320      	movs	r3, #32
 8002b30:	6420      	str	r0, [r4, #64]	; 0x40
 8002b32:	f884 303d 	strb.w	r3, [r4, #61]	; 0x3d
 8002b36:	f884 303e 	strb.w	r3, [r4, #62]	; 0x3e
 8002b3a:	bd10      	pop	{r4, pc}
 8002b3c:	2001      	movs	r0, #1
 8002b3e:	e7fc      	b.n	8002b3a <HAL_UART_Init+0x56>

08002b40 <encoderInit>:
 8002b40:	b508      	push	{r3, lr}
 8002b42:	213c      	movs	r1, #60	; 0x3c
 8002b44:	4804      	ldr	r0, [pc, #16]	; (8002b58 <encoderInit+0x18>)
 8002b46:	f7ff fb75 	bl	8002234 <HAL_TIM_Encoder_Start>
 8002b4a:	e8bd 4008 	ldmia.w	sp!, {r3, lr}
 8002b4e:	4803      	ldr	r0, [pc, #12]	; (8002b5c <encoderInit+0x1c>)
 8002b50:	213c      	movs	r1, #60	; 0x3c
 8002b52:	f7ff bb6f 	b.w	8002234 <HAL_TIM_Encoder_Start>
 8002b56:	bf00      	nop
 8002b58:	20000228 	.word	0x20000228
 8002b5c:	200002b8 	.word	0x200002b8

08002b60 <motorInit>:
 8002b60:	b510      	push	{r4, lr}
 8002b62:	4c09      	ldr	r4, [pc, #36]	; (8002b88 <motorInit+0x28>)
 8002b64:	2100      	movs	r1, #0
 8002b66:	4620      	mov	r0, r4
 8002b68:	f7ff ff1c 	bl	80029a4 <HAL_TIM_PWM_Start>
 8002b6c:	2104      	movs	r1, #4
 8002b6e:	4620      	mov	r0, r4
 8002b70:	f7ff ff18 	bl	80029a4 <HAL_TIM_PWM_Start>
 8002b74:	2108      	movs	r1, #8
 8002b76:	4620      	mov	r0, r4
 8002b78:	f7ff ff14 	bl	80029a4 <HAL_TIM_PWM_Start>
 8002b7c:	4620      	mov	r0, r4
 8002b7e:	210c      	movs	r1, #12
 8002b80:	e8bd 4010 	ldmia.w	sp!, {r4, lr}
 8002b84:	f7ff bf0e 	b.w	80029a4 <HAL_TIM_PWM_Start>
 8002b88:	20000270 	.word	0x20000270

08002b8c <setLeftWheel>:
 8002b8c:	eeb5 0ac0 	vcmpe.f32	s0, #0.0
 8002b90:	eef1 fa10 	vmrs	APSR_nzcv, fpscr
 8002b94:	db23      	blt.n	8002bde <setLeftWheel+0x52>
 8002b96:	4b14      	ldr	r3, [pc, #80]	; (8002be8 <setLeftWheel+0x5c>)
 8002b98:	881b      	ldrh	r3, [r3, #0]
 8002b9a:	ee07 3a90 	vmov	s15, r3
 8002b9e:	eef8 7ae7 	vcvt.f32.s32	s15, s15
 8002ba2:	ee67 7a80 	vmul.f32	s15, s15, s0
 8002ba6:	eefc 7ae7 	vcvt.u32.f32	s15, s15
 8002baa:	ee17 3a90 	vmov	r3, s15
 8002bae:	b29a      	uxth	r2, r3
 8002bb0:	eeb5 0ac0 	vcmpe.f32	s0, #0.0
 8002bb4:	eef1 fa10 	vmrs	APSR_nzcv, fpscr
 8002bb8:	d513      	bpl.n	8002be2 <setLeftWheel+0x56>
 8002bba:	4b0b      	ldr	r3, [pc, #44]	; (8002be8 <setLeftWheel+0x5c>)
 8002bbc:	881b      	ldrh	r3, [r3, #0]
 8002bbe:	ee07 3a90 	vmov	s15, r3
 8002bc2:	eef8 7ae7 	vcvt.f32.s32	s15, s15
 8002bc6:	ee20 0a67 	vnmul.f32	s0, s0, s15
 8002bca:	eebc 0ac0 	vcvt.u32.f32	s0, s0
 8002bce:	ee10 3a10 	vmov	r3, s0
 8002bd2:	b29b      	uxth	r3, r3
 8002bd4:	4905      	ldr	r1, [pc, #20]	; (8002bec <setLeftWheel+0x60>)
 8002bd6:	6809      	ldr	r1, [r1, #0]
 8002bd8:	638a      	str	r2, [r1, #56]	; 0x38
 8002bda:	634b      	str	r3, [r1, #52]	; 0x34
 8002bdc:	4770      	bx	lr
 8002bde:	2200      	movs	r2, #0
 8002be0:	e7e6      	b.n	8002bb0 <setLeftWheel+0x24>
 8002be2:	2300      	movs	r3, #0
 8002be4:	e7f6      	b.n	8002bd4 <setLeftWheel+0x48>
 8002be6:	bf00      	nop
 8002be8:	2000000c 	.word	0x2000000c
 8002bec:	20000270 	.word	0x20000270

08002bf0 <setRightWheel>:
 8002bf0:	eeb5 0ac0 	vcmpe.f32	s0, #0.0
 8002bf4:	eef1 fa10 	vmrs	APSR_nzcv, fpscr
 8002bf8:	db23      	blt.n	8002c42 <setRightWheel+0x52>
 8002bfa:	4b14      	ldr	r3, [pc, #80]	; (8002c4c <setRightWheel+0x5c>)
 8002bfc:	881b      	ldrh	r3, [r3, #0]
 8002bfe:	ee07 3a90 	vmov	s15, r3
 8002c02:	eef8 7ae7 	vcvt.f32.s32	s15, s15
 8002c06:	ee67 7a80 	vmul.f32	s15, s15, s0
 8002c0a:	eefc 7ae7 	vcvt.u32.f32	s15, s15
 8002c0e:	ee17 3a90 	vmov	r3, s15
 8002c12:	b29a      	uxth	r2, r3
 8002c14:	eeb5 0ac0 	vcmpe.f32	s0, #0.0
 8002c18:	eef1 fa10 	vmrs	APSR_nzcv, fpscr
 8002c1c:	d513      	bpl.n	8002c46 <setRightWheel+0x56>
 8002c1e:	4b0b      	ldr	r3, [pc, #44]	; (8002c4c <setRightWheel+0x5c>)
 8002c20:	881b      	ldrh	r3, [r3, #0]
 8002c22:	ee07 3a90 	vmov	s15, r3
 8002c26:	eef8 7ae7 	vcvt.f32.s32	s15, s15
 8002c2a:	ee20 0a67 	vnmul.f32	s0, s0, s15
 8002c2e:	eebc 0ac0 	vcvt.u32.f32	s0, s0
 8002c32:	ee10 3a10 	vmov	r3, s0
 8002c36:	b29b      	uxth	r3, r3
 8002c38:	4905      	ldr	r1, [pc, #20]	; (8002c50 <setRightWheel+0x60>)
 8002c3a:	6809      	ldr	r1, [r1, #0]
 8002c3c:	63ca      	str	r2, [r1, #60]	; 0x3c
 8002c3e:	640b      	str	r3, [r1, #64]	; 0x40
 8002c40:	4770      	bx	lr
 8002c42:	2200      	movs	r2, #0
 8002c44:	e7e6      	b.n	8002c14 <setRightWheel+0x24>
 8002c46:	2300      	movs	r3, #0
 8002c48:	e7f6      	b.n	8002c38 <setRightWheel+0x48>
 8002c4a:	bf00      	nop
 8002c4c:	2000000c 	.word	0x2000000c
 8002c50:	20000270 	.word	0x20000270

08002c54 <setWheels>:
 8002c54:	b508      	push	{r3, lr}
 8002c56:	f7ff ff99 	bl	8002b8c <setLeftWheel>
 8002c5a:	e8bd 4008 	ldmia.w	sp!, {r3, lr}
 8002c5e:	eeb0 0a60 	vmov.f32	s0, s1
 8002c62:	f7ff bfc5 	b.w	8002bf0 <setRightWheel>
	...

08002c68 <sbrk_aligned>:
 8002c68:	b570      	push	{r4, r5, r6, lr}
 8002c6a:	4e0e      	ldr	r6, [pc, #56]	; (8002ca4 <sbrk_aligned+0x3c>)
 8002c6c:	460c      	mov	r4, r1
 8002c6e:	6831      	ldr	r1, [r6, #0]
 8002c70:	4605      	mov	r5, r0
 8002c72:	b911      	cbnz	r1, 8002c7a <sbrk_aligned+0x12>
 8002c74:	f000 fad6 	bl	8003224 <_sbrk_r>
 8002c78:	6030      	str	r0, [r6, #0]
 8002c7a:	4621      	mov	r1, r4
 8002c7c:	4628      	mov	r0, r5
 8002c7e:	f000 fad1 	bl	8003224 <_sbrk_r>
 8002c82:	1c43      	adds	r3, r0, #1
 8002c84:	d00a      	beq.n	8002c9c <sbrk_aligned+0x34>
 8002c86:	1cc4      	adds	r4, r0, #3
 8002c88:	f024 0403 	bic.w	r4, r4, #3
 8002c8c:	42a0      	cmp	r0, r4
 8002c8e:	d007      	beq.n	8002ca0 <sbrk_aligned+0x38>
 8002c90:	1a21      	subs	r1, r4, r0
 8002c92:	4628      	mov	r0, r5
 8002c94:	f000 fac6 	bl	8003224 <_sbrk_r>
 8002c98:	3001      	adds	r0, #1
 8002c9a:	d101      	bne.n	8002ca0 <sbrk_aligned+0x38>
 8002c9c:	f04f 34ff 	mov.w	r4, #4294967295
 8002ca0:	4620      	mov	r0, r4
 8002ca2:	bd70      	pop	{r4, r5, r6, pc}
 8002ca4:	2000039c 	.word	0x2000039c

08002ca8 <_malloc_r>:
 8002ca8:	e92d 43f8 	stmdb	sp!, {r3, r4, r5, r6, r7, r8, r9, lr}
 8002cac:	1ccd      	adds	r5, r1, #3
 8002cae:	f025 0503 	bic.w	r5, r5, #3
 8002cb2:	3508      	adds	r5, #8
 8002cb4:	2d0c      	cmp	r5, #12
 8002cb6:	bf38      	it	cc
 8002cb8:	250c      	movcc	r5, #12
 8002cba:	2d00      	cmp	r5, #0
 8002cbc:	4607      	mov	r7, r0
 8002cbe:	db01      	blt.n	8002cc4 <_malloc_r+0x1c>
 8002cc0:	42a9      	cmp	r1, r5
 8002cc2:	d905      	bls.n	8002cd0 <_malloc_r+0x28>
 8002cc4:	230c      	movs	r3, #12
 8002cc6:	603b      	str	r3, [r7, #0]
 8002cc8:	2600      	movs	r6, #0
 8002cca:	4630      	mov	r0, r6
 8002ccc:	e8bd 83f8 	ldmia.w	sp!, {r3, r4, r5, r6, r7, r8, r9, pc}
 8002cd0:	f8df 80d0 	ldr.w	r8, [pc, #208]	; 8002da4 <_malloc_r+0xfc>
 8002cd4:	f000 f868 	bl	8002da8 <__malloc_lock>
 8002cd8:	f8d8 3000 	ldr.w	r3, [r8]
 8002cdc:	461c      	mov	r4, r3
 8002cde:	bb5c      	cbnz	r4, 8002d38 <_malloc_r+0x90>
 8002ce0:	4629      	mov	r1, r5
 8002ce2:	4638      	mov	r0, r7
 8002ce4:	f7ff ffc0 	bl	8002c68 <sbrk_aligned>
 8002ce8:	1c43      	adds	r3, r0, #1
 8002cea:	4604      	mov	r4, r0
 8002cec:	d155      	bne.n	8002d9a <_malloc_r+0xf2>
 8002cee:	f8d8 4000 	ldr.w	r4, [r8]
 8002cf2:	4626      	mov	r6, r4
 8002cf4:	2e00      	cmp	r6, #0
 8002cf6:	d145      	bne.n	8002d84 <_malloc_r+0xdc>
 8002cf8:	2c00      	cmp	r4, #0
 8002cfa:	d048      	beq.n	8002d8e <_malloc_r+0xe6>
 8002cfc:	6823      	ldr	r3, [r4, #0]
 8002cfe:	4631      	mov	r1, r6
 8002d00:	4638      	mov	r0, r7
 8002d02:	eb04 0903 	add.w	r9, r4, r3
 8002d06:	f000 fa8d 	bl	8003224 <_sbrk_r>
 8002d0a:	4581      	cmp	r9, r0
 8002d0c:	d13f      	bne.n	8002d8e <_malloc_r+0xe6>
 8002d0e:	6821      	ldr	r1, [r4, #0]
 8002d10:	1a6d      	subs	r5, r5, r1
 8002d12:	4629      	mov	r1, r5
 8002d14:	4638      	mov	r0, r7
 8002d16:	f7ff ffa7 	bl	8002c68 <sbrk_aligned>
 8002d1a:	3001      	adds	r0, #1
 8002d1c:	d037      	beq.n	8002d8e <_malloc_r+0xe6>
 8002d1e:	6823      	ldr	r3, [r4, #0]
 8002d20:	442b      	add	r3, r5
 8002d22:	6023      	str	r3, [r4, #0]
 8002d24:	f8d8 3000 	ldr.w	r3, [r8]
 8002d28:	2b00      	cmp	r3, #0
 8002d2a:	d038      	beq.n	8002d9e <_malloc_r+0xf6>
 8002d2c:	685a      	ldr	r2, [r3, #4]
 8002d2e:	42a2      	cmp	r2, r4
 8002d30:	d12b      	bne.n	8002d8a <_malloc_r+0xe2>
 8002d32:	2200      	movs	r2, #0
 8002d34:	605a      	str	r2, [r3, #4]
 8002d36:	e00f      	b.n	8002d58 <_malloc_r+0xb0>
 8002d38:	6822      	ldr	r2, [r4, #0]
 8002d3a:	1b52      	subs	r2, r2, r5
 8002d3c:	d41f      	bmi.n	8002d7e <_malloc_r+0xd6>
 8002d3e:	2a0b      	cmp	r2, #11
 8002d40:	d917      	bls.n	8002d72 <_malloc_r+0xca>
 8002d42:	1961      	adds	r1, r4, r5
 8002d44:	42a3      	cmp	r3, r4
 8002d46:	6025      	str	r5, [r4, #0]
 8002d48:	bf18      	it	ne
 8002d4a:	6059      	strne	r1, [r3, #4]
 8002d4c:	6863      	ldr	r3, [r4, #4]
 8002d4e:	bf08      	it	eq
 8002d50:	f8c8 1000 	streq.w	r1, [r8]
 8002d54:	5162      	str	r2, [r4, r5]
 8002d56:	604b      	str	r3, [r1, #4]
 8002d58:	4638      	mov	r0, r7
 8002d5a:	f104 060b 	add.w	r6, r4, #11
 8002d5e:	f000 f829 	bl	8002db4 <__malloc_unlock>
 8002d62:	f026 0607 	bic.w	r6, r6, #7
 8002d66:	1d23      	adds	r3, r4, #4
 8002d68:	1af2      	subs	r2, r6, r3
 8002d6a:	d0ae      	beq.n	8002cca <_malloc_r+0x22>
 8002d6c:	1b9b      	subs	r3, r3, r6
 8002d6e:	50a3      	str	r3, [r4, r2]
 8002d70:	e7ab      	b.n	8002cca <_malloc_r+0x22>
 8002d72:	42a3      	cmp	r3, r4
 8002d74:	6862      	ldr	r2, [r4, #4]
 8002d76:	d1dd      	bne.n	8002d34 <_malloc_r+0x8c>
 8002d78:	f8c8 2000 	str.w	r2, [r8]
 8002d7c:	e7ec      	b.n	8002d58 <_malloc_r+0xb0>
 8002d7e:	4623      	mov	r3, r4
 8002d80:	6864      	ldr	r4, [r4, #4]
 8002d82:	e7ac      	b.n	8002cde <_malloc_r+0x36>
 8002d84:	4634      	mov	r4, r6
 8002d86:	6876      	ldr	r6, [r6, #4]
 8002d88:	e7b4      	b.n	8002cf4 <_malloc_r+0x4c>
 8002d8a:	4613      	mov	r3, r2
 8002d8c:	e7cc      	b.n	8002d28 <_malloc_r+0x80>
 8002d8e:	230c      	movs	r3, #12
 8002d90:	603b      	str	r3, [r7, #0]
 8002d92:	4638      	mov	r0, r7
 8002d94:	f000 f80e 	bl	8002db4 <__malloc_unlock>
 8002d98:	e797      	b.n	8002cca <_malloc_r+0x22>
 8002d9a:	6025      	str	r5, [r4, #0]
 8002d9c:	e7dc      	b.n	8002d58 <_malloc_r+0xb0>
 8002d9e:	605b      	str	r3, [r3, #4]
 8002da0:	deff      	udf	#255	; 0xff
 8002da2:	bf00      	nop
 8002da4:	20000398 	.word	0x20000398

08002da8 <__malloc_lock>:
 8002da8:	4801      	ldr	r0, [pc, #4]	; (8002db0 <__malloc_lock+0x8>)
 8002daa:	f000 ba87 	b.w	80032bc <__retarget_lock_acquire_recursive>
 8002dae:	bf00      	nop
 8002db0:	200004e0 	.word	0x200004e0

08002db4 <__malloc_unlock>:
 8002db4:	4801      	ldr	r0, [pc, #4]	; (8002dbc <__malloc_unlock+0x8>)
 8002db6:	f000 ba82 	b.w	80032be <__retarget_lock_release_recursive>
 8002dba:	bf00      	nop
 8002dbc:	200004e0 	.word	0x200004e0

08002dc0 <std>:
 8002dc0:	2300      	movs	r3, #0
 8002dc2:	b510      	push	{r4, lr}
 8002dc4:	4604      	mov	r4, r0
 8002dc6:	e9c0 3300 	strd	r3, r3, [r0]
 8002dca:	e9c0 3304 	strd	r3, r3, [r0, #16]
 8002dce:	6083      	str	r3, [r0, #8]
 8002dd0:	8181      	strh	r1, [r0, #12]
 8002dd2:	6643      	str	r3, [r0, #100]	; 0x64
 8002dd4:	81c2      	strh	r2, [r0, #14]
 8002dd6:	6183      	str	r3, [r0, #24]
 8002dd8:	4619      	mov	r1, r3
 8002dda:	2208      	movs	r2, #8
 8002ddc:	305c      	adds	r0, #92	; 0x5c
 8002dde:	f000 f9e5 	bl	80031ac <memset>
 8002de2:	4b05      	ldr	r3, [pc, #20]	; (8002df8 <std+0x38>)
 8002de4:	6263      	str	r3, [r4, #36]	; 0x24
 8002de6:	4b05      	ldr	r3, [pc, #20]	; (8002dfc <std+0x3c>)
 8002de8:	62a3      	str	r3, [r4, #40]	; 0x28
 8002dea:	4b05      	ldr	r3, [pc, #20]	; (8002e00 <std+0x40>)
 8002dec:	62e3      	str	r3, [r4, #44]	; 0x2c
 8002dee:	4b05      	ldr	r3, [pc, #20]	; (8002e04 <std+0x44>)
 8002df0:	6224      	str	r4, [r4, #32]
 8002df2:	6323      	str	r3, [r4, #48]	; 0x30
 8002df4:	bd10      	pop	{r4, pc}
 8002df6:	bf00      	nop
 8002df8:	08002ffd 	.word	0x08002ffd
 8002dfc:	0800301f 	.word	0x0800301f
 8002e00:	08003057 	.word	0x08003057
 8002e04:	0800307b 	.word	0x0800307b

08002e08 <stdio_exit_handler>:
 8002e08:	4a02      	ldr	r2, [pc, #8]	; (8002e14 <stdio_exit_handler+0xc>)
 8002e0a:	4903      	ldr	r1, [pc, #12]	; (8002e18 <stdio_exit_handler+0x10>)
 8002e0c:	4803      	ldr	r0, [pc, #12]	; (8002e1c <stdio_exit_handler+0x14>)
 8002e0e:	f000 b869 	b.w	8002ee4 <_fwalk_sglue>
 8002e12:	bf00      	nop
 8002e14:	20000010 	.word	0x20000010
 8002e18:	08003a0d 	.word	0x08003a0d
 8002e1c:	2000001c 	.word	0x2000001c

08002e20 <cleanup_stdio>:
 8002e20:	6841      	ldr	r1, [r0, #4]
 8002e22:	4b0c      	ldr	r3, [pc, #48]	; (8002e54 <cleanup_stdio+0x34>)
 8002e24:	4299      	cmp	r1, r3
 8002e26:	b510      	push	{r4, lr}
 8002e28:	4604      	mov	r4, r0
 8002e2a:	d001      	beq.n	8002e30 <cleanup_stdio+0x10>
 8002e2c:	f000 fdee 	bl	8003a0c <_fflush_r>
 8002e30:	68a1      	ldr	r1, [r4, #8]
 8002e32:	4b09      	ldr	r3, [pc, #36]	; (8002e58 <cleanup_stdio+0x38>)
 8002e34:	4299      	cmp	r1, r3
 8002e36:	d002      	beq.n	8002e3e <cleanup_stdio+0x1e>
 8002e38:	4620      	mov	r0, r4
 8002e3a:	f000 fde7 	bl	8003a0c <_fflush_r>
 8002e3e:	68e1      	ldr	r1, [r4, #12]
 8002e40:	4b06      	ldr	r3, [pc, #24]	; (8002e5c <cleanup_stdio+0x3c>)
 8002e42:	4299      	cmp	r1, r3
 8002e44:	d004      	beq.n	8002e50 <cleanup_stdio+0x30>
 8002e46:	4620      	mov	r0, r4
 8002e48:	e8bd 4010 	ldmia.w	sp!, {r4, lr}
 8002e4c:	f000 bdde 	b.w	8003a0c <_fflush_r>
 8002e50:	bd10      	pop	{r4, pc}
 8002e52:	bf00      	nop
 8002e54:	200003a0 	.word	0x200003a0
 8002e58:	20000408 	.word	0x20000408
 8002e5c:	20000470 	.word	0x20000470

08002e60 <global_stdio_init.part.0>:
 8002e60:	b510      	push	{r4, lr}
 8002e62:	4b0b      	ldr	r3, [pc, #44]	; (8002e90 <global_stdio_init.part.0+0x30>)
 8002e64:	4c0b      	ldr	r4, [pc, #44]	; (8002e94 <global_stdio_init.part.0+0x34>)
 8002e66:	4a0c      	ldr	r2, [pc, #48]	; (8002e98 <global_stdio_init.part.0+0x38>)
 8002e68:	601a      	str	r2, [r3, #0]
 8002e6a:	4620      	mov	r0, r4
 8002e6c:	2200      	movs	r2, #0
 8002e6e:	2104      	movs	r1, #4
 8002e70:	f7ff ffa6 	bl	8002dc0 <std>
 8002e74:	f104 0068 	add.w	r0, r4, #104	; 0x68
 8002e78:	2201      	movs	r2, #1
 8002e7a:	2109      	movs	r1, #9
 8002e7c:	f7ff ffa0 	bl	8002dc0 <std>
 8002e80:	f104 00d0 	add.w	r0, r4, #208	; 0xd0
 8002e84:	2202      	movs	r2, #2
 8002e86:	e8bd 4010 	ldmia.w	sp!, {r4, lr}
 8002e8a:	2112      	movs	r1, #18
 8002e8c:	f7ff bf98 	b.w	8002dc0 <std>
 8002e90:	200004d8 	.word	0x200004d8
 8002e94:	200003a0 	.word	0x200003a0
 8002e98:	08002e09 	.word	0x08002e09

08002e9c <__sfp_lock_acquire>:
 8002e9c:	4801      	ldr	r0, [pc, #4]	; (8002ea4 <__sfp_lock_acquire+0x8>)
 8002e9e:	f000 ba0d 	b.w	80032bc <__retarget_lock_acquire_recursive>
 8002ea2:	bf00      	nop
 8002ea4:	200004e1 	.word	0x200004e1

08002ea8 <__sfp_lock_release>:
 8002ea8:	4801      	ldr	r0, [pc, #4]	; (8002eb0 <__sfp_lock_release+0x8>)
 8002eaa:	f000 ba08 	b.w	80032be <__retarget_lock_release_recursive>
 8002eae:	bf00      	nop
 8002eb0:	200004e1 	.word	0x200004e1

08002eb4 <__sinit>:
 8002eb4:	b510      	push	{r4, lr}
 8002eb6:	4604      	mov	r4, r0
 8002eb8:	f7ff fff0 	bl	8002e9c <__sfp_lock_acquire>
 8002ebc:	6a23      	ldr	r3, [r4, #32]
 8002ebe:	b11b      	cbz	r3, 8002ec8 <__sinit+0x14>
 8002ec0:	e8bd 4010 	ldmia.w	sp!, {r4, lr}
 8002ec4:	f7ff bff0 	b.w	8002ea8 <__sfp_lock_release>
 8002ec8:	4b04      	ldr	r3, [pc, #16]	; (8002edc <__sinit+0x28>)
 8002eca:	6223      	str	r3, [r4, #32]
 8002ecc:	4b04      	ldr	r3, [pc, #16]	; (8002ee0 <__sinit+0x2c>)
 8002ece:	681b      	ldr	r3, [r3, #0]
 8002ed0:	2b00      	cmp	r3, #0
 8002ed2:	d1f5      	bne.n	8002ec0 <__sinit+0xc>
 8002ed4:	f7ff ffc4 	bl	8002e60 <global_stdio_init.part.0>
 8002ed8:	e7f2      	b.n	8002ec0 <__sinit+0xc>
 8002eda:	bf00      	nop
 8002edc:	08002e21 	.word	0x08002e21
 8002ee0:	200004d8 	.word	0x200004d8

08002ee4 <_fwalk_sglue>:
 8002ee4:	e92d 43f8 	stmdb	sp!, {r3, r4, r5, r6, r7, r8, r9, lr}
 8002ee8:	4607      	mov	r7, r0
 8002eea:	4688      	mov	r8, r1
 8002eec:	4614      	mov	r4, r2
 8002eee:	2600      	movs	r6, #0
 8002ef0:	e9d4 9501 	ldrd	r9, r5, [r4, #4]
 8002ef4:	f1b9 0901 	subs.w	r9, r9, #1
 8002ef8:	d505      	bpl.n	8002f06 <_fwalk_sglue+0x22>
 8002efa:	6824      	ldr	r4, [r4, #0]
 8002efc:	2c00      	cmp	r4, #0
 8002efe:	d1f7      	bne.n	8002ef0 <_fwalk_sglue+0xc>
 8002f00:	4630      	mov	r0, r6
 8002f02:	e8bd 83f8 	ldmia.w	sp!, {r3, r4, r5, r6, r7, r8, r9, pc}
 8002f06:	89ab      	ldrh	r3, [r5, #12]
 8002f08:	2b01      	cmp	r3, #1
 8002f0a:	d907      	bls.n	8002f1c <_fwalk_sglue+0x38>
 8002f0c:	f9b5 300e 	ldrsh.w	r3, [r5, #14]
 8002f10:	3301      	adds	r3, #1
 8002f12:	d003      	beq.n	8002f1c <_fwalk_sglue+0x38>
 8002f14:	4629      	mov	r1, r5
 8002f16:	4638      	mov	r0, r7
 8002f18:	47c0      	blx	r8
 8002f1a:	4306      	orrs	r6, r0
 8002f1c:	3568      	adds	r5, #104	; 0x68
 8002f1e:	e7e9      	b.n	8002ef4 <_fwalk_sglue+0x10>

08002f20 <iprintf>:
 8002f20:	b40f      	push	{r0, r1, r2, r3}
 8002f22:	b507      	push	{r0, r1, r2, lr}
 8002f24:	4906      	ldr	r1, [pc, #24]	; (8002f40 <iprintf+0x20>)
 8002f26:	ab04      	add	r3, sp, #16
 8002f28:	6808      	ldr	r0, [r1, #0]
 8002f2a:	f853 2b04 	ldr.w	r2, [r3], #4
 8002f2e:	6881      	ldr	r1, [r0, #8]
 8002f30:	9301      	str	r3, [sp, #4]
 8002f32:	f000 fa3b 	bl	80033ac <_vfiprintf_r>
 8002f36:	b003      	add	sp, #12
 8002f38:	f85d eb04 	ldr.w	lr, [sp], #4
 8002f3c:	b004      	add	sp, #16
 8002f3e:	4770      	bx	lr
 8002f40:	20000068 	.word	0x20000068

08002f44 <_puts_r>:
 8002f44:	6a03      	ldr	r3, [r0, #32]
 8002f46:	b570      	push	{r4, r5, r6, lr}
 8002f48:	6884      	ldr	r4, [r0, #8]
 8002f4a:	4605      	mov	r5, r0
 8002f4c:	460e      	mov	r6, r1
 8002f4e:	b90b      	cbnz	r3, 8002f54 <_puts_r+0x10>
 8002f50:	f7ff ffb0 	bl	8002eb4 <__sinit>
 8002f54:	6e63      	ldr	r3, [r4, #100]	; 0x64
 8002f56:	07db      	lsls	r3, r3, #31
 8002f58:	d405      	bmi.n	8002f66 <_puts_r+0x22>
 8002f5a:	89a3      	ldrh	r3, [r4, #12]
 8002f5c:	0598      	lsls	r0, r3, #22
 8002f5e:	d402      	bmi.n	8002f66 <_puts_r+0x22>
 8002f60:	6da0      	ldr	r0, [r4, #88]	; 0x58
 8002f62:	f000 f9ab 	bl	80032bc <__retarget_lock_acquire_recursive>
 8002f66:	89a3      	ldrh	r3, [r4, #12]
 8002f68:	0719      	lsls	r1, r3, #28
 8002f6a:	d513      	bpl.n	8002f94 <_puts_r+0x50>
 8002f6c:	6923      	ldr	r3, [r4, #16]
 8002f6e:	b18b      	cbz	r3, 8002f94 <_puts_r+0x50>
 8002f70:	3e01      	subs	r6, #1
 8002f72:	68a3      	ldr	r3, [r4, #8]
 8002f74:	f816 1f01 	ldrb.w	r1, [r6, #1]!
 8002f78:	3b01      	subs	r3, #1
 8002f7a:	60a3      	str	r3, [r4, #8]
 8002f7c:	b9e9      	cbnz	r1, 8002fba <_puts_r+0x76>
 8002f7e:	2b00      	cmp	r3, #0
 8002f80:	da2e      	bge.n	8002fe0 <_puts_r+0x9c>
 8002f82:	4622      	mov	r2, r4
 8002f84:	210a      	movs	r1, #10
 8002f86:	4628      	mov	r0, r5
 8002f88:	f000 f87b 	bl	8003082 <__swbuf_r>
 8002f8c:	3001      	adds	r0, #1
 8002f8e:	d007      	beq.n	8002fa0 <_puts_r+0x5c>
 8002f90:	250a      	movs	r5, #10
 8002f92:	e007      	b.n	8002fa4 <_puts_r+0x60>
 8002f94:	4621      	mov	r1, r4
 8002f96:	4628      	mov	r0, r5
 8002f98:	f000 f8b0 	bl	80030fc <__swsetup_r>
 8002f9c:	2800      	cmp	r0, #0
 8002f9e:	d0e7      	beq.n	8002f70 <_puts_r+0x2c>
 8002fa0:	f04f 35ff 	mov.w	r5, #4294967295
 8002fa4:	6e63      	ldr	r3, [r4, #100]	; 0x64
 8002fa6:	07da      	lsls	r2, r3, #31
 8002fa8:	d405      	bmi.n	8002fb6 <_puts_r+0x72>
 8002faa:	89a3      	ldrh	r3, [r4, #12]
 8002fac:	059b      	lsls	r3, r3, #22
 8002fae:	d402      	bmi.n	8002fb6 <_puts_r+0x72>
 8002fb0:	6da0      	ldr	r0, [r4, #88]	; 0x58
 8002fb2:	f000 f984 	bl	80032be <__retarget_lock_release_recursive>
 8002fb6:	4628      	mov	r0, r5
 8002fb8:	bd70      	pop	{r4, r5, r6, pc}
 8002fba:	2b00      	cmp	r3, #0
 8002fbc:	da04      	bge.n	8002fc8 <_puts_r+0x84>
 8002fbe:	69a2      	ldr	r2, [r4, #24]
 8002fc0:	429a      	cmp	r2, r3
 8002fc2:	dc06      	bgt.n	8002fd2 <_puts_r+0x8e>
 8002fc4:	290a      	cmp	r1, #10
 8002fc6:	d004      	beq.n	8002fd2 <_puts_r+0x8e>
 8002fc8:	6823      	ldr	r3, [r4, #0]
 8002fca:	1c5a      	adds	r2, r3, #1
 8002fcc:	6022      	str	r2, [r4, #0]
 8002fce:	7019      	strb	r1, [r3, #0]
 8002fd0:	e7cf      	b.n	8002f72 <_puts_r+0x2e>
 8002fd2:	4622      	mov	r2, r4
 8002fd4:	4628      	mov	r0, r5
 8002fd6:	f000 f854 	bl	8003082 <__swbuf_r>
 8002fda:	3001      	adds	r0, #1
 8002fdc:	d1c9      	bne.n	8002f72 <_puts_r+0x2e>
 8002fde:	e7df      	b.n	8002fa0 <_puts_r+0x5c>
 8002fe0:	6823      	ldr	r3, [r4, #0]
 8002fe2:	250a      	movs	r5, #10
 8002fe4:	1c5a      	adds	r2, r3, #1
 8002fe6:	6022      	str	r2, [r4, #0]
 8002fe8:	701d      	strb	r5, [r3, #0]
 8002fea:	e7db      	b.n	8002fa4 <_puts_r+0x60>

08002fec <puts>:
 8002fec:	4b02      	ldr	r3, [pc, #8]	; (8002ff8 <puts+0xc>)
 8002fee:	4601      	mov	r1, r0
 8002ff0:	6818      	ldr	r0, [r3, #0]
 8002ff2:	f7ff bfa7 	b.w	8002f44 <_puts_r>
 8002ff6:	bf00      	nop
 8002ff8:	20000068 	.word	0x20000068

08002ffc <__sread>:
 8002ffc:	b510      	push	{r4, lr}
 8002ffe:	460c      	mov	r4, r1
 8003000:	f9b1 100e 	ldrsh.w	r1, [r1, #14]
 8003004:	f000 f8fc 	bl	8003200 <_read_r>
 8003008:	2800      	cmp	r0, #0
 800300a:	bfab      	itete	ge
 800300c:	6d63      	ldrge	r3, [r4, #84]	; 0x54
 800300e:	89a3      	ldrhlt	r3, [r4, #12]
 8003010:	181b      	addge	r3, r3, r0
 8003012:	f423 5380 	biclt.w	r3, r3, #4096	; 0x1000
 8003016:	bfac      	ite	ge
 8003018:	6563      	strge	r3, [r4, #84]	; 0x54
 800301a:	81a3      	strhlt	r3, [r4, #12]
 800301c:	bd10      	pop	{r4, pc}

0800301e <__swrite>:
 800301e:	e92d 41f0 	stmdb	sp!, {r4, r5, r6, r7, r8, lr}
 8003022:	461f      	mov	r7, r3
 8003024:	898b      	ldrh	r3, [r1, #12]
 8003026:	05db      	lsls	r3, r3, #23
 8003028:	4605      	mov	r5, r0
 800302a:	460c      	mov	r4, r1
 800302c:	4616      	mov	r6, r2
 800302e:	d505      	bpl.n	800303c <__swrite+0x1e>
 8003030:	f9b1 100e 	ldrsh.w	r1, [r1, #14]
 8003034:	2302      	movs	r3, #2
 8003036:	2200      	movs	r2, #0
 8003038:	f000 f8d0 	bl	80031dc <_lseek_r>
 800303c:	89a3      	ldrh	r3, [r4, #12]
 800303e:	f9b4 100e 	ldrsh.w	r1, [r4, #14]
 8003042:	f423 5380 	bic.w	r3, r3, #4096	; 0x1000
 8003046:	81a3      	strh	r3, [r4, #12]
 8003048:	4632      	mov	r2, r6
 800304a:	463b      	mov	r3, r7
 800304c:	4628      	mov	r0, r5
 800304e:	e8bd 41f0 	ldmia.w	sp!, {r4, r5, r6, r7, r8, lr}
 8003052:	f000 b8f7 	b.w	8003244 <_write_r>

08003056 <__sseek>:
 8003056:	b510      	push	{r4, lr}
 8003058:	460c      	mov	r4, r1
 800305a:	f9b1 100e 	ldrsh.w	r1, [r1, #14]
 800305e:	f000 f8bd 	bl	80031dc <_lseek_r>
 8003062:	1c43      	adds	r3, r0, #1
 8003064:	89a3      	ldrh	r3, [r4, #12]
 8003066:	bf15      	itete	ne
 8003068:	6560      	strne	r0, [r4, #84]	; 0x54
 800306a:	f423 5380 	biceq.w	r3, r3, #4096	; 0x1000
 800306e:	f443 5380 	orrne.w	r3, r3, #4096	; 0x1000
 8003072:	81a3      	strheq	r3, [r4, #12]
 8003074:	bf18      	it	ne
 8003076:	81a3      	strhne	r3, [r4, #12]
 8003078:	bd10      	pop	{r4, pc}

0800307a <__sclose>:
 800307a:	f9b1 100e 	ldrsh.w	r1, [r1, #14]
 800307e:	f000 b89d 	b.w	80031bc <_close_r>

08003082 <__swbuf_r>:
 8003082:	b5f8      	push	{r3, r4, r5, r6, r7, lr}
 8003084:	460e      	mov	r6, r1
 8003086:	4614      	mov	r4, r2
 8003088:	4605      	mov	r5, r0
 800308a:	b118      	cbz	r0, 8003094 <__swbuf_r+0x12>
 800308c:	6a03      	ldr	r3, [r0, #32]
 800308e:	b90b      	cbnz	r3, 8003094 <__swbuf_r+0x12>
 8003090:	f7ff ff10 	bl	8002eb4 <__sinit>
 8003094:	69a3      	ldr	r3, [r4, #24]
 8003096:	60a3      	str	r3, [r4, #8]
 8003098:	89a3      	ldrh	r3, [r4, #12]
 800309a:	071a      	lsls	r2, r3, #28
 800309c:	d525      	bpl.n	80030ea <__swbuf_r+0x68>
 800309e:	6923      	ldr	r3, [r4, #16]
 80030a0:	b31b      	cbz	r3, 80030ea <__swbuf_r+0x68>
 80030a2:	6823      	ldr	r3, [r4, #0]
 80030a4:	6922      	ldr	r2, [r4, #16]
 80030a6:	1a98      	subs	r0, r3, r2
 80030a8:	6963      	ldr	r3, [r4, #20]
 80030aa:	b2f6      	uxtb	r6, r6
 80030ac:	4283      	cmp	r3, r0
 80030ae:	4637      	mov	r7, r6
 80030b0:	dc04      	bgt.n	80030bc <__swbuf_r+0x3a>
 80030b2:	4621      	mov	r1, r4
 80030b4:	4628      	mov	r0, r5
 80030b6:	f000 fca9 	bl	8003a0c <_fflush_r>
 80030ba:	b9e0      	cbnz	r0, 80030f6 <__swbuf_r+0x74>
 80030bc:	68a3      	ldr	r3, [r4, #8]
 80030be:	3b01      	subs	r3, #1
 80030c0:	60a3      	str	r3, [r4, #8]
 80030c2:	6823      	ldr	r3, [r4, #0]
 80030c4:	1c5a      	adds	r2, r3, #1
 80030c6:	6022      	str	r2, [r4, #0]
 80030c8:	701e      	strb	r6, [r3, #0]
 80030ca:	6962      	ldr	r2, [r4, #20]
 80030cc:	1c43      	adds	r3, r0, #1
 80030ce:	429a      	cmp	r2, r3
 80030d0:	d004      	beq.n	80030dc <__swbuf_r+0x5a>
 80030d2:	89a3      	ldrh	r3, [r4, #12]
 80030d4:	07db      	lsls	r3, r3, #31
 80030d6:	d506      	bpl.n	80030e6 <__swbuf_r+0x64>
 80030d8:	2e0a      	cmp	r6, #10
 80030da:	d104      	bne.n	80030e6 <__swbuf_r+0x64>
 80030dc:	4621      	mov	r1, r4
 80030de:	4628      	mov	r0, r5
 80030e0:	f000 fc94 	bl	8003a0c <_fflush_r>
 80030e4:	b938      	cbnz	r0, 80030f6 <__swbuf_r+0x74>
 80030e6:	4638      	mov	r0, r7
 80030e8:	bdf8      	pop	{r3, r4, r5, r6, r7, pc}
 80030ea:	4621      	mov	r1, r4
 80030ec:	4628      	mov	r0, r5
 80030ee:	f000 f805 	bl	80030fc <__swsetup_r>
 80030f2:	2800      	cmp	r0, #0
 80030f4:	d0d5      	beq.n	80030a2 <__swbuf_r+0x20>
 80030f6:	f04f 37ff 	mov.w	r7, #4294967295
 80030fa:	e7f4      	b.n	80030e6 <__swbuf_r+0x64>

080030fc <__swsetup_r>:
 80030fc:	b538      	push	{r3, r4, r5, lr}
 80030fe:	4b2a      	ldr	r3, [pc, #168]	; (80031a8 <__swsetup_r+0xac>)
 8003100:	4605      	mov	r5, r0
 8003102:	6818      	ldr	r0, [r3, #0]
 8003104:	460c      	mov	r4, r1
 8003106:	b118      	cbz	r0, 8003110 <__swsetup_r+0x14>
 8003108:	6a03      	ldr	r3, [r0, #32]
 800310a:	b90b      	cbnz	r3, 8003110 <__swsetup_r+0x14>
 800310c:	f7ff fed2 	bl	8002eb4 <__sinit>
 8003110:	89a3      	ldrh	r3, [r4, #12]
 8003112:	f9b4 200c 	ldrsh.w	r2, [r4, #12]
 8003116:	0718      	lsls	r0, r3, #28
 8003118:	d422      	bmi.n	8003160 <__swsetup_r+0x64>
 800311a:	06d9      	lsls	r1, r3, #27
 800311c:	d407      	bmi.n	800312e <__swsetup_r+0x32>
 800311e:	2309      	movs	r3, #9
 8003120:	602b      	str	r3, [r5, #0]
 8003122:	f042 0340 	orr.w	r3, r2, #64	; 0x40
 8003126:	81a3      	strh	r3, [r4, #12]
 8003128:	f04f 30ff 	mov.w	r0, #4294967295
 800312c:	e034      	b.n	8003198 <__swsetup_r+0x9c>
 800312e:	0758      	lsls	r0, r3, #29
 8003130:	d512      	bpl.n	8003158 <__swsetup_r+0x5c>
 8003132:	6b61      	ldr	r1, [r4, #52]	; 0x34
 8003134:	b141      	cbz	r1, 8003148 <__swsetup_r+0x4c>
 8003136:	f104 0344 	add.w	r3, r4, #68	; 0x44
 800313a:	4299      	cmp	r1, r3
 800313c:	d002      	beq.n	8003144 <__swsetup_r+0x48>
 800313e:	4628      	mov	r0, r5
 8003140:	f000 f8be 	bl	80032c0 <_free_r>
 8003144:	2300      	movs	r3, #0
 8003146:	6363      	str	r3, [r4, #52]	; 0x34
 8003148:	89a3      	ldrh	r3, [r4, #12]
 800314a:	f023 0324 	bic.w	r3, r3, #36	; 0x24
 800314e:	81a3      	strh	r3, [r4, #12]
 8003150:	2300      	movs	r3, #0
 8003152:	6063      	str	r3, [r4, #4]
 8003154:	6923      	ldr	r3, [r4, #16]
 8003156:	6023      	str	r3, [r4, #0]
 8003158:	89a3      	ldrh	r3, [r4, #12]
 800315a:	f043 0308 	orr.w	r3, r3, #8
 800315e:	81a3      	strh	r3, [r4, #12]
 8003160:	6923      	ldr	r3, [r4, #16]
 8003162:	b94b      	cbnz	r3, 8003178 <__swsetup_r+0x7c>
 8003164:	89a3      	ldrh	r3, [r4, #12]
 8003166:	f403 7320 	and.w	r3, r3, #640	; 0x280
 800316a:	f5b3 7f00 	cmp.w	r3, #512	; 0x200
 800316e:	d003      	beq.n	8003178 <__swsetup_r+0x7c>
 8003170:	4621      	mov	r1, r4
 8003172:	4628      	mov	r0, r5
 8003174:	f000 fc98 	bl	8003aa8 <__smakebuf_r>
 8003178:	89a0      	ldrh	r0, [r4, #12]
 800317a:	f9b4 200c 	ldrsh.w	r2, [r4, #12]
 800317e:	f010 0301 	ands.w	r3, r0, #1
 8003182:	d00a      	beq.n	800319a <__swsetup_r+0x9e>
 8003184:	2300      	movs	r3, #0
 8003186:	60a3      	str	r3, [r4, #8]
 8003188:	6963      	ldr	r3, [r4, #20]
 800318a:	425b      	negs	r3, r3
 800318c:	61a3      	str	r3, [r4, #24]
 800318e:	6923      	ldr	r3, [r4, #16]
 8003190:	b943      	cbnz	r3, 80031a4 <__swsetup_r+0xa8>
 8003192:	f010 0080 	ands.w	r0, r0, #128	; 0x80
 8003196:	d1c4      	bne.n	8003122 <__swsetup_r+0x26>
 8003198:	bd38      	pop	{r3, r4, r5, pc}
 800319a:	0781      	lsls	r1, r0, #30
 800319c:	bf58      	it	pl
 800319e:	6963      	ldrpl	r3, [r4, #20]
 80031a0:	60a3      	str	r3, [r4, #8]
 80031a2:	e7f4      	b.n	800318e <__swsetup_r+0x92>
 80031a4:	2000      	movs	r0, #0
 80031a6:	e7f7      	b.n	8003198 <__swsetup_r+0x9c>
 80031a8:	20000068 	.word	0x20000068

080031ac <memset>:
 80031ac:	4402      	add	r2, r0
 80031ae:	4603      	mov	r3, r0
 80031b0:	4293      	cmp	r3, r2
 80031b2:	d100      	bne.n	80031b6 <memset+0xa>
 80031b4:	4770      	bx	lr
 80031b6:	f803 1b01 	strb.w	r1, [r3], #1
 80031ba:	e7f9      	b.n	80031b0 <memset+0x4>

080031bc <_close_r>:
 80031bc:	b538      	push	{r3, r4, r5, lr}
 80031be:	4d06      	ldr	r5, [pc, #24]	; (80031d8 <_close_r+0x1c>)
 80031c0:	2300      	movs	r3, #0
 80031c2:	4604      	mov	r4, r0
 80031c4:	4608      	mov	r0, r1
 80031c6:	602b      	str	r3, [r5, #0]
 80031c8:	f7fd ff4e 	bl	8001068 <_close>
 80031cc:	1c43      	adds	r3, r0, #1
 80031ce:	d102      	bne.n	80031d6 <_close_r+0x1a>
 80031d0:	682b      	ldr	r3, [r5, #0]
 80031d2:	b103      	cbz	r3, 80031d6 <_close_r+0x1a>
 80031d4:	6023      	str	r3, [r4, #0]
 80031d6:	bd38      	pop	{r3, r4, r5, pc}
 80031d8:	200004dc 	.word	0x200004dc

080031dc <_lseek_r>:
 80031dc:	b538      	push	{r3, r4, r5, lr}
 80031de:	4d07      	ldr	r5, [pc, #28]	; (80031fc <_lseek_r+0x20>)
 80031e0:	4604      	mov	r4, r0
 80031e2:	4608      	mov	r0, r1
 80031e4:	4611      	mov	r1, r2
 80031e6:	2200      	movs	r2, #0
 80031e8:	602a      	str	r2, [r5, #0]
 80031ea:	461a      	mov	r2, r3
 80031ec:	f7fd ff46 	bl	800107c <_lseek>
 80031f0:	1c43      	adds	r3, r0, #1
 80031f2:	d102      	bne.n	80031fa <_lseek_r+0x1e>
 80031f4:	682b      	ldr	r3, [r5, #0]
 80031f6:	b103      	cbz	r3, 80031fa <_lseek_r+0x1e>
 80031f8:	6023      	str	r3, [r4, #0]
 80031fa:	bd38      	pop	{r3, r4, r5, pc}
 80031fc:	200004dc 	.word	0x200004dc

08003200 <_read_r>:
 8003200:	b538      	push	{r3, r4, r5, lr}
 8003202:	4d07      	ldr	r5, [pc, #28]	; (8003220 <_read_r+0x20>)
 8003204:	4604      	mov	r4, r0
 8003206:	4608      	mov	r0, r1
 8003208:	4611      	mov	r1, r2
 800320a:	2200      	movs	r2, #0
 800320c:	602a      	str	r2, [r5, #0]
 800320e:	461a      	mov	r2, r3
 8003210:	f7fd ff0e 	bl	8001030 <_read>
 8003214:	1c43      	adds	r3, r0, #1
 8003216:	d102      	bne.n	800321e <_read_r+0x1e>
 8003218:	682b      	ldr	r3, [r5, #0]
 800321a:	b103      	cbz	r3, 800321e <_read_r+0x1e>
 800321c:	6023      	str	r3, [r4, #0]
 800321e:	bd38      	pop	{r3, r4, r5, pc}
 8003220:	200004dc 	.word	0x200004dc

08003224 <_sbrk_r>:
 8003224:	b538      	push	{r3, r4, r5, lr}
 8003226:	4d06      	ldr	r5, [pc, #24]	; (8003240 <_sbrk_r+0x1c>)
 8003228:	2300      	movs	r3, #0
 800322a:	4604      	mov	r4, r0
 800322c:	4608      	mov	r0, r1
 800322e:	602b      	str	r3, [r5, #0]
 8003230:	f7fd ff26 	bl	8001080 <_sbrk>
 8003234:	1c43      	adds	r3, r0, #1
 8003236:	d102      	bne.n	800323e <_sbrk_r+0x1a>
 8003238:	682b      	ldr	r3, [r5, #0]
 800323a:	b103      	cbz	r3, 800323e <_sbrk_r+0x1a>
 800323c:	6023      	str	r3, [r4, #0]
 800323e:	bd38      	pop	{r3, r4, r5, pc}
 8003240:	200004dc 	.word	0x200004dc

08003244 <_write_r>:
 8003244:	b538      	push	{r3, r4, r5, lr}
 8003246:	4d07      	ldr	r5, [pc, #28]	; (8003264 <_write_r+0x20>)
 8003248:	4604      	mov	r4, r0
 800324a:	4608      	mov	r0, r1
 800324c:	4611      	mov	r1, r2
 800324e:	2200      	movs	r2, #0
 8003250:	602a      	str	r2, [r5, #0]
 8003252:	461a      	mov	r2, r3
 8003254:	f7fd fefa 	bl	800104c <_write>
 8003258:	1c43      	adds	r3, r0, #1
 800325a:	d102      	bne.n	8003262 <_write_r+0x1e>
 800325c:	682b      	ldr	r3, [r5, #0]
 800325e:	b103      	cbz	r3, 8003262 <_write_r+0x1e>
 8003260:	6023      	str	r3, [r4, #0]
 8003262:	bd38      	pop	{r3, r4, r5, pc}
 8003264:	200004dc 	.word	0x200004dc

08003268 <__errno>:
 8003268:	4b01      	ldr	r3, [pc, #4]	; (8003270 <__errno+0x8>)
 800326a:	6818      	ldr	r0, [r3, #0]
 800326c:	4770      	bx	lr
 800326e:	bf00      	nop
 8003270:	20000068 	.word	0x20000068

08003274 <__libc_init_array>:
 8003274:	b570      	push	{r4, r5, r6, lr}
 8003276:	4d0d      	ldr	r5, [pc, #52]	; (80032ac <__libc_init_array+0x38>)
 8003278:	4c0d      	ldr	r4, [pc, #52]	; (80032b0 <__libc_init_array+0x3c>)
 800327a:	1b64      	subs	r4, r4, r5
 800327c:	10a4      	asrs	r4, r4, #2
 800327e:	2600      	movs	r6, #0
 8003280:	42a6      	cmp	r6, r4
 8003282:	d109      	bne.n	8003298 <__libc_init_array+0x24>
 8003284:	4d0b      	ldr	r5, [pc, #44]	; (80032b4 <__libc_init_array+0x40>)
 8003286:	4c0c      	ldr	r4, [pc, #48]	; (80032b8 <__libc_init_array+0x44>)
 8003288:	f000 fc6c 	bl	8003b64 <_init>
 800328c:	1b64      	subs	r4, r4, r5
 800328e:	10a4      	asrs	r4, r4, #2
 8003290:	2600      	movs	r6, #0
 8003292:	42a6      	cmp	r6, r4
 8003294:	d105      	bne.n	80032a2 <__libc_init_array+0x2e>
 8003296:	bd70      	pop	{r4, r5, r6, pc}
 8003298:	f855 3b04 	ldr.w	r3, [r5], #4
 800329c:	4798      	blx	r3
 800329e:	3601      	adds	r6, #1
 80032a0:	e7ee      	b.n	8003280 <__libc_init_array+0xc>
 80032a2:	f855 3b04 	ldr.w	r3, [r5], #4
 80032a6:	4798      	blx	r3
 80032a8:	3601      	adds	r6, #1
 80032aa:	e7f2      	b.n	8003292 <__libc_init_array+0x1e>
 80032ac:	08003bf4 	.word	0x08003bf4
 80032b0:	08003bf4 	.word	0x08003bf4
 80032b4:	08003bf4 	.word	0x08003bf4
 80032b8:	08003bf8 	.word	0x08003bf8

080032bc <__retarget_lock_acquire_recursive>:
 80032bc:	4770      	bx	lr

080032be <__retarget_lock_release_recursive>:
 80032be:	4770      	bx	lr

080032c0 <_free_r>:
 80032c0:	b537      	push	{r0, r1, r2, r4, r5, lr}
 80032c2:	2900      	cmp	r1, #0
 80032c4:	d044      	beq.n	8003350 <_free_r+0x90>
 80032c6:	f851 3c04 	ldr.w	r3, [r1, #-4]
 80032ca:	9001      	str	r0, [sp, #4]
 80032cc:	2b00      	cmp	r3, #0
 80032ce:	f1a1 0404 	sub.w	r4, r1, #4
 80032d2:	bfb8      	it	lt
 80032d4:	18e4      	addlt	r4, r4, r3
 80032d6:	f7ff fd67 	bl	8002da8 <__malloc_lock>
 80032da:	4a1e      	ldr	r2, [pc, #120]	; (8003354 <_free_r+0x94>)
 80032dc:	9801      	ldr	r0, [sp, #4]
 80032de:	6813      	ldr	r3, [r2, #0]
 80032e0:	b933      	cbnz	r3, 80032f0 <_free_r+0x30>
 80032e2:	6063      	str	r3, [r4, #4]
 80032e4:	6014      	str	r4, [r2, #0]
 80032e6:	b003      	add	sp, #12
 80032e8:	e8bd 4030 	ldmia.w	sp!, {r4, r5, lr}
 80032ec:	f7ff bd62 	b.w	8002db4 <__malloc_unlock>
 80032f0:	42a3      	cmp	r3, r4
 80032f2:	d908      	bls.n	8003306 <_free_r+0x46>
 80032f4:	6825      	ldr	r5, [r4, #0]
 80032f6:	1961      	adds	r1, r4, r5
 80032f8:	428b      	cmp	r3, r1
 80032fa:	bf01      	itttt	eq
 80032fc:	6819      	ldreq	r1, [r3, #0]
 80032fe:	685b      	ldreq	r3, [r3, #4]
 8003300:	1949      	addeq	r1, r1, r5
 8003302:	6021      	streq	r1, [r4, #0]
 8003304:	e7ed      	b.n	80032e2 <_free_r+0x22>
 8003306:	461a      	mov	r2, r3
 8003308:	685b      	ldr	r3, [r3, #4]
 800330a:	b10b      	cbz	r3, 8003310 <_free_r+0x50>
 800330c:	42a3      	cmp	r3, r4
 800330e:	d9fa      	bls.n	8003306 <_free_r+0x46>
 8003310:	6811      	ldr	r1, [r2, #0]
 8003312:	1855      	adds	r5, r2, r1
 8003314:	42a5      	cmp	r5, r4
 8003316:	d10b      	bne.n	8003330 <_free_r+0x70>
 8003318:	6824      	ldr	r4, [r4, #0]
 800331a:	4421      	add	r1, r4
 800331c:	1854      	adds	r4, r2, r1
 800331e:	42a3      	cmp	r3, r4
 8003320:	6011      	str	r1, [r2, #0]
 8003322:	d1e0      	bne.n	80032e6 <_free_r+0x26>
 8003324:	681c      	ldr	r4, [r3, #0]
 8003326:	685b      	ldr	r3, [r3, #4]
 8003328:	6053      	str	r3, [r2, #4]
 800332a:	440c      	add	r4, r1
 800332c:	6014      	str	r4, [r2, #0]
 800332e:	e7da      	b.n	80032e6 <_free_r+0x26>
 8003330:	d902      	bls.n	8003338 <_free_r+0x78>
 8003332:	230c      	movs	r3, #12
 8003334:	6003      	str	r3, [r0, #0]
 8003336:	e7d6      	b.n	80032e6 <_free_r+0x26>
 8003338:	6825      	ldr	r5, [r4, #0]
 800333a:	1961      	adds	r1, r4, r5
 800333c:	428b      	cmp	r3, r1
 800333e:	bf04      	itt	eq
 8003340:	6819      	ldreq	r1, [r3, #0]
 8003342:	685b      	ldreq	r3, [r3, #4]
 8003344:	6063      	str	r3, [r4, #4]
 8003346:	bf04      	itt	eq
 8003348:	1949      	addeq	r1, r1, r5
 800334a:	6021      	streq	r1, [r4, #0]
 800334c:	6054      	str	r4, [r2, #4]
 800334e:	e7ca      	b.n	80032e6 <_free_r+0x26>
 8003350:	b003      	add	sp, #12
 8003352:	bd30      	pop	{r4, r5, pc}
 8003354:	20000398 	.word	0x20000398

08003358 <__sfputc_r>:
 8003358:	6893      	ldr	r3, [r2, #8]
 800335a:	3b01      	subs	r3, #1
 800335c:	2b00      	cmp	r3, #0
 800335e:	b410      	push	{r4}
 8003360:	6093      	str	r3, [r2, #8]
 8003362:	da08      	bge.n	8003376 <__sfputc_r+0x1e>
 8003364:	6994      	ldr	r4, [r2, #24]
 8003366:	42a3      	cmp	r3, r4
 8003368:	db01      	blt.n	800336e <__sfputc_r+0x16>
 800336a:	290a      	cmp	r1, #10
 800336c:	d103      	bne.n	8003376 <__sfputc_r+0x1e>
 800336e:	f85d 4b04 	ldr.w	r4, [sp], #4
 8003372:	f7ff be86 	b.w	8003082 <__swbuf_r>
 8003376:	6813      	ldr	r3, [r2, #0]
 8003378:	1c58      	adds	r0, r3, #1
 800337a:	6010      	str	r0, [r2, #0]
 800337c:	7019      	strb	r1, [r3, #0]
 800337e:	4608      	mov	r0, r1
 8003380:	f85d 4b04 	ldr.w	r4, [sp], #4
 8003384:	4770      	bx	lr

08003386 <__sfputs_r>:
 8003386:	b5f8      	push	{r3, r4, r5, r6, r7, lr}
 8003388:	4606      	mov	r6, r0
 800338a:	460f      	mov	r7, r1
 800338c:	4614      	mov	r4, r2
 800338e:	18d5      	adds	r5, r2, r3
 8003390:	42ac      	cmp	r4, r5
 8003392:	d101      	bne.n	8003398 <__sfputs_r+0x12>
 8003394:	2000      	movs	r0, #0
 8003396:	e007      	b.n	80033a8 <__sfputs_r+0x22>
 8003398:	f814 1b01 	ldrb.w	r1, [r4], #1
 800339c:	463a      	mov	r2, r7
 800339e:	4630      	mov	r0, r6
 80033a0:	f7ff ffda 	bl	8003358 <__sfputc_r>
 80033a4:	1c43      	adds	r3, r0, #1
 80033a6:	d1f3      	bne.n	8003390 <__sfputs_r+0xa>
 80033a8:	bdf8      	pop	{r3, r4, r5, r6, r7, pc}
	...

080033ac <_vfiprintf_r>:
 80033ac:	e92d 4ff0 	stmdb	sp!, {r4, r5, r6, r7, r8, r9, sl, fp, lr}
 80033b0:	460d      	mov	r5, r1
 80033b2:	b09d      	sub	sp, #116	; 0x74
 80033b4:	4614      	mov	r4, r2
 80033b6:	4698      	mov	r8, r3
 80033b8:	4606      	mov	r6, r0
 80033ba:	b118      	cbz	r0, 80033c4 <_vfiprintf_r+0x18>
 80033bc:	6a03      	ldr	r3, [r0, #32]
 80033be:	b90b      	cbnz	r3, 80033c4 <_vfiprintf_r+0x18>
 80033c0:	f7ff fd78 	bl	8002eb4 <__sinit>
 80033c4:	6e6b      	ldr	r3, [r5, #100]	; 0x64
 80033c6:	07d9      	lsls	r1, r3, #31
 80033c8:	d405      	bmi.n	80033d6 <_vfiprintf_r+0x2a>
 80033ca:	89ab      	ldrh	r3, [r5, #12]
 80033cc:	059a      	lsls	r2, r3, #22
 80033ce:	d402      	bmi.n	80033d6 <_vfiprintf_r+0x2a>
 80033d0:	6da8      	ldr	r0, [r5, #88]	; 0x58
 80033d2:	f7ff ff73 	bl	80032bc <__retarget_lock_acquire_recursive>
 80033d6:	89ab      	ldrh	r3, [r5, #12]
 80033d8:	071b      	lsls	r3, r3, #28
 80033da:	d501      	bpl.n	80033e0 <_vfiprintf_r+0x34>
 80033dc:	692b      	ldr	r3, [r5, #16]
 80033de:	b99b      	cbnz	r3, 8003408 <_vfiprintf_r+0x5c>
 80033e0:	4629      	mov	r1, r5
 80033e2:	4630      	mov	r0, r6
 80033e4:	f7ff fe8a 	bl	80030fc <__swsetup_r>
 80033e8:	b170      	cbz	r0, 8003408 <_vfiprintf_r+0x5c>
 80033ea:	6e6b      	ldr	r3, [r5, #100]	; 0x64
 80033ec:	07dc      	lsls	r4, r3, #31
 80033ee:	d504      	bpl.n	80033fa <_vfiprintf_r+0x4e>
 80033f0:	f04f 30ff 	mov.w	r0, #4294967295
 80033f4:	b01d      	add	sp, #116	; 0x74
 80033f6:	e8bd 8ff0 	ldmia.w	sp!, {r4, r5, r6, r7, r8, r9, sl, fp, pc}
 80033fa:	89ab      	ldrh	r3, [r5, #12]
 80033fc:	0598      	lsls	r0, r3, #22
 80033fe:	d4f7      	bmi.n	80033f0 <_vfiprintf_r+0x44>
 8003400:	6da8      	ldr	r0, [r5, #88]	; 0x58
 8003402:	f7ff ff5c 	bl	80032be <__retarget_lock_release_recursive>
 8003406:	e7f3      	b.n	80033f0 <_vfiprintf_r+0x44>
 8003408:	2300      	movs	r3, #0
 800340a:	9309      	str	r3, [sp, #36]	; 0x24
 800340c:	2320      	movs	r3, #32
 800340e:	f88d 3029 	strb.w	r3, [sp, #41]	; 0x29
 8003412:	f8cd 800c 	str.w	r8, [sp, #12]
 8003416:	2330      	movs	r3, #48	; 0x30
 8003418:	f8df 81b0 	ldr.w	r8, [pc, #432]	; 80035cc <_vfiprintf_r+0x220>
 800341c:	f88d 302a 	strb.w	r3, [sp, #42]	; 0x2a
 8003420:	f04f 0901 	mov.w	r9, #1
 8003424:	4623      	mov	r3, r4
 8003426:	469a      	mov	sl, r3
 8003428:	f813 2b01 	ldrb.w	r2, [r3], #1
 800342c:	b10a      	cbz	r2, 8003432 <_vfiprintf_r+0x86>
 800342e:	2a25      	cmp	r2, #37	; 0x25
 8003430:	d1f9      	bne.n	8003426 <_vfiprintf_r+0x7a>
 8003432:	ebba 0b04 	subs.w	fp, sl, r4
 8003436:	d00b      	beq.n	8003450 <_vfiprintf_r+0xa4>
 8003438:	465b      	mov	r3, fp
 800343a:	4622      	mov	r2, r4
 800343c:	4629      	mov	r1, r5
 800343e:	4630      	mov	r0, r6
 8003440:	f7ff ffa1 	bl	8003386 <__sfputs_r>
 8003444:	3001      	adds	r0, #1
 8003446:	f000 80a9 	beq.w	800359c <_vfiprintf_r+0x1f0>
 800344a:	9a09      	ldr	r2, [sp, #36]	; 0x24
 800344c:	445a      	add	r2, fp
 800344e:	9209      	str	r2, [sp, #36]	; 0x24
 8003450:	f89a 3000 	ldrb.w	r3, [sl]
 8003454:	2b00      	cmp	r3, #0
 8003456:	f000 80a1 	beq.w	800359c <_vfiprintf_r+0x1f0>
 800345a:	2300      	movs	r3, #0
 800345c:	f04f 32ff 	mov.w	r2, #4294967295
 8003460:	e9cd 2305 	strd	r2, r3, [sp, #20]
 8003464:	f10a 0a01 	add.w	sl, sl, #1
 8003468:	9304      	str	r3, [sp, #16]
 800346a:	9307      	str	r3, [sp, #28]
 800346c:	f88d 3053 	strb.w	r3, [sp, #83]	; 0x53
 8003470:	931a      	str	r3, [sp, #104]	; 0x68
 8003472:	4654      	mov	r4, sl
 8003474:	2205      	movs	r2, #5
 8003476:	f814 1b01 	ldrb.w	r1, [r4], #1
 800347a:	4854      	ldr	r0, [pc, #336]	; (80035cc <_vfiprintf_r+0x220>)
 800347c:	f7fc fea8 	bl	80001d0 <memchr>
 8003480:	9a04      	ldr	r2, [sp, #16]
 8003482:	b9d8      	cbnz	r0, 80034bc <_vfiprintf_r+0x110>
 8003484:	06d1      	lsls	r1, r2, #27
 8003486:	bf44      	itt	mi
 8003488:	2320      	movmi	r3, #32
 800348a:	f88d 3053 	strbmi.w	r3, [sp, #83]	; 0x53
 800348e:	0713      	lsls	r3, r2, #28
 8003490:	bf44      	itt	mi
 8003492:	232b      	movmi	r3, #43	; 0x2b
 8003494:	f88d 3053 	strbmi.w	r3, [sp, #83]	; 0x53
 8003498:	f89a 3000 	ldrb.w	r3, [sl]
 800349c:	2b2a      	cmp	r3, #42	; 0x2a
 800349e:	d015      	beq.n	80034cc <_vfiprintf_r+0x120>
 80034a0:	9a07      	ldr	r2, [sp, #28]
 80034a2:	4654      	mov	r4, sl
 80034a4:	2000      	movs	r0, #0
 80034a6:	f04f 0c0a 	mov.w	ip, #10
 80034aa:	4621      	mov	r1, r4
 80034ac:	f811 3b01 	ldrb.w	r3, [r1], #1
 80034b0:	3b30      	subs	r3, #48	; 0x30
 80034b2:	2b09      	cmp	r3, #9
 80034b4:	d94d      	bls.n	8003552 <_vfiprintf_r+0x1a6>
 80034b6:	b1b0      	cbz	r0, 80034e6 <_vfiprintf_r+0x13a>
 80034b8:	9207      	str	r2, [sp, #28]
 80034ba:	e014      	b.n	80034e6 <_vfiprintf_r+0x13a>
 80034bc:	eba0 0308 	sub.w	r3, r0, r8
 80034c0:	fa09 f303 	lsl.w	r3, r9, r3
 80034c4:	4313      	orrs	r3, r2
 80034c6:	9304      	str	r3, [sp, #16]
 80034c8:	46a2      	mov	sl, r4
 80034ca:	e7d2      	b.n	8003472 <_vfiprintf_r+0xc6>
 80034cc:	9b03      	ldr	r3, [sp, #12]
 80034ce:	1d19      	adds	r1, r3, #4
 80034d0:	681b      	ldr	r3, [r3, #0]
 80034d2:	9103      	str	r1, [sp, #12]
 80034d4:	2b00      	cmp	r3, #0
 80034d6:	bfbb      	ittet	lt
 80034d8:	425b      	neglt	r3, r3
 80034da:	f042 0202 	orrlt.w	r2, r2, #2
 80034de:	9307      	strge	r3, [sp, #28]
 80034e0:	9307      	strlt	r3, [sp, #28]
 80034e2:	bfb8      	it	lt
 80034e4:	9204      	strlt	r2, [sp, #16]
 80034e6:	7823      	ldrb	r3, [r4, #0]
 80034e8:	2b2e      	cmp	r3, #46	; 0x2e
 80034ea:	d10c      	bne.n	8003506 <_vfiprintf_r+0x15a>
 80034ec:	7863      	ldrb	r3, [r4, #1]
 80034ee:	2b2a      	cmp	r3, #42	; 0x2a
 80034f0:	d134      	bne.n	800355c <_vfiprintf_r+0x1b0>
 80034f2:	9b03      	ldr	r3, [sp, #12]
 80034f4:	1d1a      	adds	r2, r3, #4
 80034f6:	681b      	ldr	r3, [r3, #0]
 80034f8:	9203      	str	r2, [sp, #12]
 80034fa:	2b00      	cmp	r3, #0
 80034fc:	bfb8      	it	lt
 80034fe:	f04f 33ff 	movlt.w	r3, #4294967295
 8003502:	3402      	adds	r4, #2
 8003504:	9305      	str	r3, [sp, #20]
 8003506:	f8df a0d4 	ldr.w	sl, [pc, #212]	; 80035dc <_vfiprintf_r+0x230>
 800350a:	7821      	ldrb	r1, [r4, #0]
 800350c:	2203      	movs	r2, #3
 800350e:	4650      	mov	r0, sl
 8003510:	f7fc fe5e 	bl	80001d0 <memchr>
 8003514:	b138      	cbz	r0, 8003526 <_vfiprintf_r+0x17a>
 8003516:	9b04      	ldr	r3, [sp, #16]
 8003518:	eba0 000a 	sub.w	r0, r0, sl
 800351c:	2240      	movs	r2, #64	; 0x40
 800351e:	4082      	lsls	r2, r0
 8003520:	4313      	orrs	r3, r2
 8003522:	3401      	adds	r4, #1
 8003524:	9304      	str	r3, [sp, #16]
 8003526:	f814 1b01 	ldrb.w	r1, [r4], #1
 800352a:	4829      	ldr	r0, [pc, #164]	; (80035d0 <_vfiprintf_r+0x224>)
 800352c:	f88d 1028 	strb.w	r1, [sp, #40]	; 0x28
 8003530:	2206      	movs	r2, #6
 8003532:	f7fc fe4d 	bl	80001d0 <memchr>
 8003536:	2800      	cmp	r0, #0
 8003538:	d03f      	beq.n	80035ba <_vfiprintf_r+0x20e>
 800353a:	4b26      	ldr	r3, [pc, #152]	; (80035d4 <_vfiprintf_r+0x228>)
 800353c:	bb1b      	cbnz	r3, 8003586 <_vfiprintf_r+0x1da>
 800353e:	9b03      	ldr	r3, [sp, #12]
 8003540:	3307      	adds	r3, #7
 8003542:	f023 0307 	bic.w	r3, r3, #7
 8003546:	3308      	adds	r3, #8
 8003548:	9303      	str	r3, [sp, #12]
 800354a:	9b09      	ldr	r3, [sp, #36]	; 0x24
 800354c:	443b      	add	r3, r7
 800354e:	9309      	str	r3, [sp, #36]	; 0x24
 8003550:	e768      	b.n	8003424 <_vfiprintf_r+0x78>
 8003552:	fb0c 3202 	mla	r2, ip, r2, r3
 8003556:	460c      	mov	r4, r1
 8003558:	2001      	movs	r0, #1
 800355a:	e7a6      	b.n	80034aa <_vfiprintf_r+0xfe>
 800355c:	2300      	movs	r3, #0
 800355e:	3401      	adds	r4, #1
 8003560:	9305      	str	r3, [sp, #20]
 8003562:	4619      	mov	r1, r3
 8003564:	f04f 0c0a 	mov.w	ip, #10
 8003568:	4620      	mov	r0, r4
 800356a:	f810 2b01 	ldrb.w	r2, [r0], #1
 800356e:	3a30      	subs	r2, #48	; 0x30
 8003570:	2a09      	cmp	r2, #9
 8003572:	d903      	bls.n	800357c <_vfiprintf_r+0x1d0>
 8003574:	2b00      	cmp	r3, #0
 8003576:	d0c6      	beq.n	8003506 <_vfiprintf_r+0x15a>
 8003578:	9105      	str	r1, [sp, #20]
 800357a:	e7c4      	b.n	8003506 <_vfiprintf_r+0x15a>
 800357c:	fb0c 2101 	mla	r1, ip, r1, r2
 8003580:	4604      	mov	r4, r0
 8003582:	2301      	movs	r3, #1
 8003584:	e7f0      	b.n	8003568 <_vfiprintf_r+0x1bc>
 8003586:	ab03      	add	r3, sp, #12
 8003588:	9300      	str	r3, [sp, #0]
 800358a:	462a      	mov	r2, r5
 800358c:	4b12      	ldr	r3, [pc, #72]	; (80035d8 <_vfiprintf_r+0x22c>)
 800358e:	a904      	add	r1, sp, #16
 8003590:	4630      	mov	r0, r6
 8003592:	f3af 8000 	nop.w
 8003596:	4607      	mov	r7, r0
 8003598:	1c78      	adds	r0, r7, #1
 800359a:	d1d6      	bne.n	800354a <_vfiprintf_r+0x19e>
 800359c:	6e6b      	ldr	r3, [r5, #100]	; 0x64
 800359e:	07d9      	lsls	r1, r3, #31
 80035a0:	d405      	bmi.n	80035ae <_vfiprintf_r+0x202>
 80035a2:	89ab      	ldrh	r3, [r5, #12]
 80035a4:	059a      	lsls	r2, r3, #22
 80035a6:	d402      	bmi.n	80035ae <_vfiprintf_r+0x202>
 80035a8:	6da8      	ldr	r0, [r5, #88]	; 0x58
 80035aa:	f7ff fe88 	bl	80032be <__retarget_lock_release_recursive>
 80035ae:	89ab      	ldrh	r3, [r5, #12]
 80035b0:	065b      	lsls	r3, r3, #25
 80035b2:	f53f af1d 	bmi.w	80033f0 <_vfiprintf_r+0x44>
 80035b6:	9809      	ldr	r0, [sp, #36]	; 0x24
 80035b8:	e71c      	b.n	80033f4 <_vfiprintf_r+0x48>
 80035ba:	ab03      	add	r3, sp, #12
 80035bc:	9300      	str	r3, [sp, #0]
 80035be:	462a      	mov	r2, r5
 80035c0:	4b05      	ldr	r3, [pc, #20]	; (80035d8 <_vfiprintf_r+0x22c>)
 80035c2:	a904      	add	r1, sp, #16
 80035c4:	4630      	mov	r0, r6
 80035c6:	f000 f879 	bl	80036bc <_printf_i>
 80035ca:	e7e4      	b.n	8003596 <_vfiprintf_r+0x1ea>
 80035cc:	08003bb8 	.word	0x08003bb8
 80035d0:	08003bc2 	.word	0x08003bc2
 80035d4:	00000000 	.word	0x00000000
 80035d8:	08003387 	.word	0x08003387
 80035dc:	08003bbe 	.word	0x08003bbe

080035e0 <_printf_common>:
 80035e0:	e92d 47f0 	stmdb	sp!, {r4, r5, r6, r7, r8, r9, sl, lr}
 80035e4:	4616      	mov	r6, r2
 80035e6:	4699      	mov	r9, r3
 80035e8:	688a      	ldr	r2, [r1, #8]
 80035ea:	690b      	ldr	r3, [r1, #16]
 80035ec:	f8dd 8020 	ldr.w	r8, [sp, #32]
 80035f0:	4293      	cmp	r3, r2
 80035f2:	bfb8      	it	lt
 80035f4:	4613      	movlt	r3, r2
 80035f6:	6033      	str	r3, [r6, #0]
 80035f8:	f891 2043 	ldrb.w	r2, [r1, #67]	; 0x43
 80035fc:	4607      	mov	r7, r0
 80035fe:	460c      	mov	r4, r1
 8003600:	b10a      	cbz	r2, 8003606 <_printf_common+0x26>
 8003602:	3301      	adds	r3, #1
 8003604:	6033      	str	r3, [r6, #0]
 8003606:	6823      	ldr	r3, [r4, #0]
 8003608:	0699      	lsls	r1, r3, #26
 800360a:	bf42      	ittt	mi
 800360c:	6833      	ldrmi	r3, [r6, #0]
 800360e:	3302      	addmi	r3, #2
 8003610:	6033      	strmi	r3, [r6, #0]
 8003612:	6825      	ldr	r5, [r4, #0]
 8003614:	f015 0506 	ands.w	r5, r5, #6
 8003618:	d106      	bne.n	8003628 <_printf_common+0x48>
 800361a:	f104 0a19 	add.w	sl, r4, #25
 800361e:	68e3      	ldr	r3, [r4, #12]
 8003620:	6832      	ldr	r2, [r6, #0]
 8003622:	1a9b      	subs	r3, r3, r2
 8003624:	42ab      	cmp	r3, r5
 8003626:	dc26      	bgt.n	8003676 <_printf_common+0x96>
 8003628:	f894 2043 	ldrb.w	r2, [r4, #67]	; 0x43
 800362c:	1e13      	subs	r3, r2, #0
 800362e:	6822      	ldr	r2, [r4, #0]
 8003630:	bf18      	it	ne
 8003632:	2301      	movne	r3, #1
 8003634:	0692      	lsls	r2, r2, #26
 8003636:	d42b      	bmi.n	8003690 <_printf_common+0xb0>
 8003638:	f104 0243 	add.w	r2, r4, #67	; 0x43
 800363c:	4649      	mov	r1, r9
 800363e:	4638      	mov	r0, r7
 8003640:	47c0      	blx	r8
 8003642:	3001      	adds	r0, #1
 8003644:	d01e      	beq.n	8003684 <_printf_common+0xa4>
 8003646:	6823      	ldr	r3, [r4, #0]
 8003648:	6922      	ldr	r2, [r4, #16]
 800364a:	f003 0306 	and.w	r3, r3, #6
 800364e:	2b04      	cmp	r3, #4
 8003650:	bf02      	ittt	eq
 8003652:	68e5      	ldreq	r5, [r4, #12]
 8003654:	6833      	ldreq	r3, [r6, #0]
 8003656:	1aed      	subeq	r5, r5, r3
 8003658:	68a3      	ldr	r3, [r4, #8]
 800365a:	bf0c      	ite	eq
 800365c:	ea25 75e5 	biceq.w	r5, r5, r5, asr #31
 8003660:	2500      	movne	r5, #0
 8003662:	4293      	cmp	r3, r2
 8003664:	bfc4      	itt	gt
 8003666:	1a9b      	subgt	r3, r3, r2
 8003668:	18ed      	addgt	r5, r5, r3
 800366a:	2600      	movs	r6, #0
 800366c:	341a      	adds	r4, #26
 800366e:	42b5      	cmp	r5, r6
 8003670:	d11a      	bne.n	80036a8 <_printf_common+0xc8>
 8003672:	2000      	movs	r0, #0
 8003674:	e008      	b.n	8003688 <_printf_common+0xa8>
 8003676:	2301      	movs	r3, #1
 8003678:	4652      	mov	r2, sl
 800367a:	4649      	mov	r1, r9
 800367c:	4638      	mov	r0, r7
 800367e:	47c0      	blx	r8
 8003680:	3001      	adds	r0, #1
 8003682:	d103      	bne.n	800368c <_printf_common+0xac>
 8003684:	f04f 30ff 	mov.w	r0, #4294967295
 8003688:	e8bd 87f0 	ldmia.w	sp!, {r4, r5, r6, r7, r8, r9, sl, pc}
 800368c:	3501      	adds	r5, #1
 800368e:	e7c6      	b.n	800361e <_printf_common+0x3e>
 8003690:	18e1      	adds	r1, r4, r3
 8003692:	1c5a      	adds	r2, r3, #1
 8003694:	2030      	movs	r0, #48	; 0x30
 8003696:	f881 0043 	strb.w	r0, [r1, #67]	; 0x43
 800369a:	4422      	add	r2, r4
 800369c:	f894 1045 	ldrb.w	r1, [r4, #69]	; 0x45
 80036a0:	f882 1043 	strb.w	r1, [r2, #67]	; 0x43
 80036a4:	3302      	adds	r3, #2
 80036a6:	e7c7      	b.n	8003638 <_printf_common+0x58>
 80036a8:	2301      	movs	r3, #1
 80036aa:	4622      	mov	r2, r4
 80036ac:	4649      	mov	r1, r9
 80036ae:	4638      	mov	r0, r7
 80036b0:	47c0      	blx	r8
 80036b2:	3001      	adds	r0, #1
 80036b4:	d0e6      	beq.n	8003684 <_printf_common+0xa4>
 80036b6:	3601      	adds	r6, #1
 80036b8:	e7d9      	b.n	800366e <_printf_common+0x8e>
	...

080036bc <_printf_i>:
 80036bc:	e92d 47ff 	stmdb	sp!, {r0, r1, r2, r3, r4, r5, r6, r7, r8, r9, sl, lr}
 80036c0:	7e0f      	ldrb	r7, [r1, #24]
 80036c2:	9d0c      	ldr	r5, [sp, #48]	; 0x30
 80036c4:	2f78      	cmp	r7, #120	; 0x78
 80036c6:	4691      	mov	r9, r2
 80036c8:	4680      	mov	r8, r0
 80036ca:	460c      	mov	r4, r1
 80036cc:	469a      	mov	sl, r3
 80036ce:	f101 0243 	add.w	r2, r1, #67	; 0x43
 80036d2:	d807      	bhi.n	80036e4 <_printf_i+0x28>
 80036d4:	2f62      	cmp	r7, #98	; 0x62
 80036d6:	d80a      	bhi.n	80036ee <_printf_i+0x32>
 80036d8:	2f00      	cmp	r7, #0
 80036da:	f000 80d4 	beq.w	8003886 <_printf_i+0x1ca>
 80036de:	2f58      	cmp	r7, #88	; 0x58
 80036e0:	f000 80c0 	beq.w	8003864 <_printf_i+0x1a8>
 80036e4:	f104 0542 	add.w	r5, r4, #66	; 0x42
 80036e8:	f884 7042 	strb.w	r7, [r4, #66]	; 0x42
 80036ec:	e03a      	b.n	8003764 <_printf_i+0xa8>
 80036ee:	f1a7 0363 	sub.w	r3, r7, #99	; 0x63
 80036f2:	2b15      	cmp	r3, #21
 80036f4:	d8f6      	bhi.n	80036e4 <_printf_i+0x28>
 80036f6:	a101      	add	r1, pc, #4	; (adr r1, 80036fc <_printf_i+0x40>)
 80036f8:	f851 f023 	ldr.w	pc, [r1, r3, lsl #2]
 80036fc:	08003755 	.word	0x08003755
 8003700:	08003769 	.word	0x08003769
 8003704:	080036e5 	.word	0x080036e5
 8003708:	080036e5 	.word	0x080036e5
 800370c:	080036e5 	.word	0x080036e5
 8003710:	080036e5 	.word	0x080036e5
 8003714:	08003769 	.word	0x08003769
 8003718:	080036e5 	.word	0x080036e5
 800371c:	080036e5 	.word	0x080036e5
 8003720:	080036e5 	.word	0x080036e5
 8003724:	080036e5 	.word	0x080036e5
 8003728:	0800386d 	.word	0x0800386d
 800372c:	08003795 	.word	0x08003795
 8003730:	08003827 	.word	0x08003827
 8003734:	080036e5 	.word	0x080036e5
 8003738:	080036e5 	.word	0x080036e5
 800373c:	0800388f 	.word	0x0800388f
 8003740:	080036e5 	.word	0x080036e5
 8003744:	08003795 	.word	0x08003795
 8003748:	080036e5 	.word	0x080036e5
 800374c:	080036e5 	.word	0x080036e5
 8003750:	0800382f 	.word	0x0800382f
 8003754:	682b      	ldr	r3, [r5, #0]
 8003756:	1d1a      	adds	r2, r3, #4
 8003758:	681b      	ldr	r3, [r3, #0]
 800375a:	602a      	str	r2, [r5, #0]
 800375c:	f104 0542 	add.w	r5, r4, #66	; 0x42
 8003760:	f884 3042 	strb.w	r3, [r4, #66]	; 0x42
 8003764:	2301      	movs	r3, #1
 8003766:	e09f      	b.n	80038a8 <_printf_i+0x1ec>
 8003768:	6820      	ldr	r0, [r4, #0]
 800376a:	682b      	ldr	r3, [r5, #0]
 800376c:	0607      	lsls	r7, r0, #24
 800376e:	f103 0104 	add.w	r1, r3, #4
 8003772:	6029      	str	r1, [r5, #0]
 8003774:	d501      	bpl.n	800377a <_printf_i+0xbe>
 8003776:	681e      	ldr	r6, [r3, #0]
 8003778:	e003      	b.n	8003782 <_printf_i+0xc6>
 800377a:	0646      	lsls	r6, r0, #25
 800377c:	d5fb      	bpl.n	8003776 <_printf_i+0xba>
 800377e:	f9b3 6000 	ldrsh.w	r6, [r3]
 8003782:	2e00      	cmp	r6, #0
 8003784:	da03      	bge.n	800378e <_printf_i+0xd2>
 8003786:	232d      	movs	r3, #45	; 0x2d
 8003788:	4276      	negs	r6, r6
 800378a:	f884 3043 	strb.w	r3, [r4, #67]	; 0x43
 800378e:	485a      	ldr	r0, [pc, #360]	; (80038f8 <_printf_i+0x23c>)
 8003790:	230a      	movs	r3, #10
 8003792:	e012      	b.n	80037ba <_printf_i+0xfe>
 8003794:	682b      	ldr	r3, [r5, #0]
 8003796:	6820      	ldr	r0, [r4, #0]
 8003798:	1d19      	adds	r1, r3, #4
 800379a:	6029      	str	r1, [r5, #0]
 800379c:	0605      	lsls	r5, r0, #24
 800379e:	d501      	bpl.n	80037a4 <_printf_i+0xe8>
 80037a0:	681e      	ldr	r6, [r3, #0]
 80037a2:	e002      	b.n	80037aa <_printf_i+0xee>
 80037a4:	0641      	lsls	r1, r0, #25
 80037a6:	d5fb      	bpl.n	80037a0 <_printf_i+0xe4>
 80037a8:	881e      	ldrh	r6, [r3, #0]
 80037aa:	4853      	ldr	r0, [pc, #332]	; (80038f8 <_printf_i+0x23c>)
 80037ac:	2f6f      	cmp	r7, #111	; 0x6f
 80037ae:	bf0c      	ite	eq
 80037b0:	2308      	moveq	r3, #8
 80037b2:	230a      	movne	r3, #10
 80037b4:	2100      	movs	r1, #0
 80037b6:	f884 1043 	strb.w	r1, [r4, #67]	; 0x43
 80037ba:	6865      	ldr	r5, [r4, #4]
 80037bc:	60a5      	str	r5, [r4, #8]
 80037be:	2d00      	cmp	r5, #0
 80037c0:	bfa2      	ittt	ge
 80037c2:	6821      	ldrge	r1, [r4, #0]
 80037c4:	f021 0104 	bicge.w	r1, r1, #4
 80037c8:	6021      	strge	r1, [r4, #0]
 80037ca:	b90e      	cbnz	r6, 80037d0 <_printf_i+0x114>
 80037cc:	2d00      	cmp	r5, #0
 80037ce:	d04b      	beq.n	8003868 <_printf_i+0x1ac>
 80037d0:	4615      	mov	r5, r2
 80037d2:	fbb6 f1f3 	udiv	r1, r6, r3
 80037d6:	fb03 6711 	mls	r7, r3, r1, r6
 80037da:	5dc7      	ldrb	r7, [r0, r7]
 80037dc:	f805 7d01 	strb.w	r7, [r5, #-1]!
 80037e0:	4637      	mov	r7, r6
 80037e2:	42bb      	cmp	r3, r7
 80037e4:	460e      	mov	r6, r1
 80037e6:	d9f4      	bls.n	80037d2 <_printf_i+0x116>
 80037e8:	2b08      	cmp	r3, #8
 80037ea:	d10b      	bne.n	8003804 <_printf_i+0x148>
 80037ec:	6823      	ldr	r3, [r4, #0]
 80037ee:	07de      	lsls	r6, r3, #31
 80037f0:	d508      	bpl.n	8003804 <_printf_i+0x148>
 80037f2:	6923      	ldr	r3, [r4, #16]
 80037f4:	6861      	ldr	r1, [r4, #4]
 80037f6:	4299      	cmp	r1, r3
 80037f8:	bfde      	ittt	le
 80037fa:	2330      	movle	r3, #48	; 0x30
 80037fc:	f805 3c01 	strble.w	r3, [r5, #-1]
 8003800:	f105 35ff 	addle.w	r5, r5, #4294967295
 8003804:	1b52      	subs	r2, r2, r5
 8003806:	6122      	str	r2, [r4, #16]
 8003808:	f8cd a000 	str.w	sl, [sp]
 800380c:	464b      	mov	r3, r9
 800380e:	aa03      	add	r2, sp, #12
 8003810:	4621      	mov	r1, r4
 8003812:	4640      	mov	r0, r8
 8003814:	f7ff fee4 	bl	80035e0 <_printf_common>
 8003818:	3001      	adds	r0, #1
 800381a:	d14a      	bne.n	80038b2 <_printf_i+0x1f6>
 800381c:	f04f 30ff 	mov.w	r0, #4294967295
 8003820:	b004      	add	sp, #16
 8003822:	e8bd 87f0 	ldmia.w	sp!, {r4, r5, r6, r7, r8, r9, sl, pc}
 8003826:	6823      	ldr	r3, [r4, #0]
 8003828:	f043 0320 	orr.w	r3, r3, #32
 800382c:	6023      	str	r3, [r4, #0]
 800382e:	4833      	ldr	r0, [pc, #204]	; (80038fc <_printf_i+0x240>)
 8003830:	2778      	movs	r7, #120	; 0x78
 8003832:	f884 7045 	strb.w	r7, [r4, #69]	; 0x45
 8003836:	6823      	ldr	r3, [r4, #0]
 8003838:	6829      	ldr	r1, [r5, #0]
 800383a:	061f      	lsls	r7, r3, #24
 800383c:	f851 6b04 	ldr.w	r6, [r1], #4
 8003840:	d402      	bmi.n	8003848 <_printf_i+0x18c>
 8003842:	065f      	lsls	r7, r3, #25
 8003844:	bf48      	it	mi
 8003846:	b2b6      	uxthmi	r6, r6
 8003848:	07df      	lsls	r7, r3, #31
 800384a:	bf48      	it	mi
 800384c:	f043 0320 	orrmi.w	r3, r3, #32
 8003850:	6029      	str	r1, [r5, #0]
 8003852:	bf48      	it	mi
 8003854:	6023      	strmi	r3, [r4, #0]
 8003856:	b91e      	cbnz	r6, 8003860 <_printf_i+0x1a4>
 8003858:	6823      	ldr	r3, [r4, #0]
 800385a:	f023 0320 	bic.w	r3, r3, #32
 800385e:	6023      	str	r3, [r4, #0]
 8003860:	2310      	movs	r3, #16
 8003862:	e7a7      	b.n	80037b4 <_printf_i+0xf8>
 8003864:	4824      	ldr	r0, [pc, #144]	; (80038f8 <_printf_i+0x23c>)
 8003866:	e7e4      	b.n	8003832 <_printf_i+0x176>
 8003868:	4615      	mov	r5, r2
 800386a:	e7bd      	b.n	80037e8 <_printf_i+0x12c>
 800386c:	682b      	ldr	r3, [r5, #0]
 800386e:	6826      	ldr	r6, [r4, #0]
 8003870:	6961      	ldr	r1, [r4, #20]
 8003872:	1d18      	adds	r0, r3, #4
 8003874:	6028      	str	r0, [r5, #0]
 8003876:	0635      	lsls	r5, r6, #24
 8003878:	681b      	ldr	r3, [r3, #0]
 800387a:	d501      	bpl.n	8003880 <_printf_i+0x1c4>
 800387c:	6019      	str	r1, [r3, #0]
 800387e:	e002      	b.n	8003886 <_printf_i+0x1ca>
 8003880:	0670      	lsls	r0, r6, #25
 8003882:	d5fb      	bpl.n	800387c <_printf_i+0x1c0>
 8003884:	8019      	strh	r1, [r3, #0]
 8003886:	2300      	movs	r3, #0
 8003888:	6123      	str	r3, [r4, #16]
 800388a:	4615      	mov	r5, r2
 800388c:	e7bc      	b.n	8003808 <_printf_i+0x14c>
 800388e:	682b      	ldr	r3, [r5, #0]
 8003890:	1d1a      	adds	r2, r3, #4
 8003892:	602a      	str	r2, [r5, #0]
 8003894:	681d      	ldr	r5, [r3, #0]
 8003896:	6862      	ldr	r2, [r4, #4]
 8003898:	2100      	movs	r1, #0
 800389a:	4628      	mov	r0, r5
 800389c:	f7fc fc98 	bl	80001d0 <memchr>
 80038a0:	b108      	cbz	r0, 80038a6 <_printf_i+0x1ea>
 80038a2:	1b40      	subs	r0, r0, r5
 80038a4:	6060      	str	r0, [r4, #4]
 80038a6:	6863      	ldr	r3, [r4, #4]
 80038a8:	6123      	str	r3, [r4, #16]
 80038aa:	2300      	movs	r3, #0
 80038ac:	f884 3043 	strb.w	r3, [r4, #67]	; 0x43
 80038b0:	e7aa      	b.n	8003808 <_printf_i+0x14c>
 80038b2:	6923      	ldr	r3, [r4, #16]
 80038b4:	462a      	mov	r2, r5
 80038b6:	4649      	mov	r1, r9
 80038b8:	4640      	mov	r0, r8
 80038ba:	47d0      	blx	sl
 80038bc:	3001      	adds	r0, #1
 80038be:	d0ad      	beq.n	800381c <_printf_i+0x160>
 80038c0:	6823      	ldr	r3, [r4, #0]
 80038c2:	079b      	lsls	r3, r3, #30
 80038c4:	d413      	bmi.n	80038ee <_printf_i+0x232>
 80038c6:	68e0      	ldr	r0, [r4, #12]
 80038c8:	9b03      	ldr	r3, [sp, #12]
 80038ca:	4298      	cmp	r0, r3
 80038cc:	bfb8      	it	lt
 80038ce:	4618      	movlt	r0, r3
 80038d0:	e7a6      	b.n	8003820 <_printf_i+0x164>
 80038d2:	2301      	movs	r3, #1
 80038d4:	4632      	mov	r2, r6
 80038d6:	4649      	mov	r1, r9
 80038d8:	4640      	mov	r0, r8
 80038da:	47d0      	blx	sl
 80038dc:	3001      	adds	r0, #1
 80038de:	d09d      	beq.n	800381c <_printf_i+0x160>
 80038e0:	3501      	adds	r5, #1
 80038e2:	68e3      	ldr	r3, [r4, #12]
 80038e4:	9903      	ldr	r1, [sp, #12]
 80038e6:	1a5b      	subs	r3, r3, r1
 80038e8:	42ab      	cmp	r3, r5
 80038ea:	dcf2      	bgt.n	80038d2 <_printf_i+0x216>
 80038ec:	e7eb      	b.n	80038c6 <_printf_i+0x20a>
 80038ee:	2500      	movs	r5, #0
 80038f0:	f104 0619 	add.w	r6, r4, #25
 80038f4:	e7f5      	b.n	80038e2 <_printf_i+0x226>
 80038f6:	bf00      	nop
 80038f8:	08003bc9 	.word	0x08003bc9
 80038fc:	08003bda 	.word	0x08003bda

08003900 <__sflush_r>:
 8003900:	898a      	ldrh	r2, [r1, #12]
 8003902:	e92d 41f0 	stmdb	sp!, {r4, r5, r6, r7, r8, lr}
 8003906:	4605      	mov	r5, r0
 8003908:	0710      	lsls	r0, r2, #28
 800390a:	460c      	mov	r4, r1
 800390c:	d458      	bmi.n	80039c0 <__sflush_r+0xc0>
 800390e:	684b      	ldr	r3, [r1, #4]
 8003910:	2b00      	cmp	r3, #0
 8003912:	dc05      	bgt.n	8003920 <__sflush_r+0x20>
 8003914:	6c0b      	ldr	r3, [r1, #64]	; 0x40
 8003916:	2b00      	cmp	r3, #0
 8003918:	dc02      	bgt.n	8003920 <__sflush_r+0x20>
 800391a:	2000      	movs	r0, #0
 800391c:	e8bd 81f0 	ldmia.w	sp!, {r4, r5, r6, r7, r8, pc}
 8003920:	6ae6      	ldr	r6, [r4, #44]	; 0x2c
 8003922:	2e00      	cmp	r6, #0
 8003924:	d0f9      	beq.n	800391a <__sflush_r+0x1a>
 8003926:	2300      	movs	r3, #0
 8003928:	f412 5280 	ands.w	r2, r2, #4096	; 0x1000
 800392c:	682f      	ldr	r7, [r5, #0]
 800392e:	6a21      	ldr	r1, [r4, #32]
 8003930:	602b      	str	r3, [r5, #0]
 8003932:	d032      	beq.n	800399a <__sflush_r+0x9a>
 8003934:	6d60      	ldr	r0, [r4, #84]	; 0x54
 8003936:	89a3      	ldrh	r3, [r4, #12]
 8003938:	075a      	lsls	r2, r3, #29
 800393a:	d505      	bpl.n	8003948 <__sflush_r+0x48>
 800393c:	6863      	ldr	r3, [r4, #4]
 800393e:	1ac0      	subs	r0, r0, r3
 8003940:	6b63      	ldr	r3, [r4, #52]	; 0x34
 8003942:	b10b      	cbz	r3, 8003948 <__sflush_r+0x48>
 8003944:	6c23      	ldr	r3, [r4, #64]	; 0x40
 8003946:	1ac0      	subs	r0, r0, r3
 8003948:	2300      	movs	r3, #0
 800394a:	4602      	mov	r2, r0
 800394c:	6ae6      	ldr	r6, [r4, #44]	; 0x2c
 800394e:	6a21      	ldr	r1, [r4, #32]
 8003950:	4628      	mov	r0, r5
 8003952:	47b0      	blx	r6
 8003954:	1c43      	adds	r3, r0, #1
 8003956:	89a3      	ldrh	r3, [r4, #12]
 8003958:	d106      	bne.n	8003968 <__sflush_r+0x68>
 800395a:	6829      	ldr	r1, [r5, #0]
 800395c:	291d      	cmp	r1, #29
 800395e:	d82b      	bhi.n	80039b8 <__sflush_r+0xb8>
 8003960:	4a29      	ldr	r2, [pc, #164]	; (8003a08 <__sflush_r+0x108>)
 8003962:	410a      	asrs	r2, r1
 8003964:	07d6      	lsls	r6, r2, #31
 8003966:	d427      	bmi.n	80039b8 <__sflush_r+0xb8>
 8003968:	2200      	movs	r2, #0
 800396a:	6062      	str	r2, [r4, #4]
 800396c:	04d9      	lsls	r1, r3, #19
 800396e:	6922      	ldr	r2, [r4, #16]
 8003970:	6022      	str	r2, [r4, #0]
 8003972:	d504      	bpl.n	800397e <__sflush_r+0x7e>
 8003974:	1c42      	adds	r2, r0, #1
 8003976:	d101      	bne.n	800397c <__sflush_r+0x7c>
 8003978:	682b      	ldr	r3, [r5, #0]
 800397a:	b903      	cbnz	r3, 800397e <__sflush_r+0x7e>
 800397c:	6560      	str	r0, [r4, #84]	; 0x54
 800397e:	6b61      	ldr	r1, [r4, #52]	; 0x34
 8003980:	602f      	str	r7, [r5, #0]
 8003982:	2900      	cmp	r1, #0
 8003984:	d0c9      	beq.n	800391a <__sflush_r+0x1a>
 8003986:	f104 0344 	add.w	r3, r4, #68	; 0x44
 800398a:	4299      	cmp	r1, r3
 800398c:	d002      	beq.n	8003994 <__sflush_r+0x94>
 800398e:	4628      	mov	r0, r5
 8003990:	f7ff fc96 	bl	80032c0 <_free_r>
 8003994:	2000      	movs	r0, #0
 8003996:	6360      	str	r0, [r4, #52]	; 0x34
 8003998:	e7c0      	b.n	800391c <__sflush_r+0x1c>
 800399a:	2301      	movs	r3, #1
 800399c:	4628      	mov	r0, r5
 800399e:	47b0      	blx	r6
 80039a0:	1c41      	adds	r1, r0, #1
 80039a2:	d1c8      	bne.n	8003936 <__sflush_r+0x36>
 80039a4:	682b      	ldr	r3, [r5, #0]
 80039a6:	2b00      	cmp	r3, #0
 80039a8:	d0c5      	beq.n	8003936 <__sflush_r+0x36>
 80039aa:	2b1d      	cmp	r3, #29
 80039ac:	d001      	beq.n	80039b2 <__sflush_r+0xb2>
 80039ae:	2b16      	cmp	r3, #22
 80039b0:	d101      	bne.n	80039b6 <__sflush_r+0xb6>
 80039b2:	602f      	str	r7, [r5, #0]
 80039b4:	e7b1      	b.n	800391a <__sflush_r+0x1a>
 80039b6:	89a3      	ldrh	r3, [r4, #12]
 80039b8:	f043 0340 	orr.w	r3, r3, #64	; 0x40
 80039bc:	81a3      	strh	r3, [r4, #12]
 80039be:	e7ad      	b.n	800391c <__sflush_r+0x1c>
 80039c0:	690f      	ldr	r7, [r1, #16]
 80039c2:	2f00      	cmp	r7, #0
 80039c4:	d0a9      	beq.n	800391a <__sflush_r+0x1a>
 80039c6:	0793      	lsls	r3, r2, #30
 80039c8:	680e      	ldr	r6, [r1, #0]
 80039ca:	bf08      	it	eq
 80039cc:	694b      	ldreq	r3, [r1, #20]
 80039ce:	600f      	str	r7, [r1, #0]
 80039d0:	bf18      	it	ne
 80039d2:	2300      	movne	r3, #0
 80039d4:	eba6 0807 	sub.w	r8, r6, r7
 80039d8:	608b      	str	r3, [r1, #8]
 80039da:	f1b8 0f00 	cmp.w	r8, #0
 80039de:	dd9c      	ble.n	800391a <__sflush_r+0x1a>
 80039e0:	6a21      	ldr	r1, [r4, #32]
 80039e2:	6aa6      	ldr	r6, [r4, #40]	; 0x28
 80039e4:	4643      	mov	r3, r8
 80039e6:	463a      	mov	r2, r7
 80039e8:	4628      	mov	r0, r5
 80039ea:	47b0      	blx	r6
 80039ec:	2800      	cmp	r0, #0
 80039ee:	dc06      	bgt.n	80039fe <__sflush_r+0xfe>
 80039f0:	89a3      	ldrh	r3, [r4, #12]
 80039f2:	f043 0340 	orr.w	r3, r3, #64	; 0x40
 80039f6:	81a3      	strh	r3, [r4, #12]
 80039f8:	f04f 30ff 	mov.w	r0, #4294967295
 80039fc:	e78e      	b.n	800391c <__sflush_r+0x1c>
 80039fe:	4407      	add	r7, r0
 8003a00:	eba8 0800 	sub.w	r8, r8, r0
 8003a04:	e7e9      	b.n	80039da <__sflush_r+0xda>
 8003a06:	bf00      	nop
 8003a08:	dfbffffe 	.word	0xdfbffffe

08003a0c <_fflush_r>:
 8003a0c:	b538      	push	{r3, r4, r5, lr}
 8003a0e:	690b      	ldr	r3, [r1, #16]
 8003a10:	4605      	mov	r5, r0
 8003a12:	460c      	mov	r4, r1
 8003a14:	b913      	cbnz	r3, 8003a1c <_fflush_r+0x10>
 8003a16:	2500      	movs	r5, #0
 8003a18:	4628      	mov	r0, r5
 8003a1a:	bd38      	pop	{r3, r4, r5, pc}
 8003a1c:	b118      	cbz	r0, 8003a26 <_fflush_r+0x1a>
 8003a1e:	6a03      	ldr	r3, [r0, #32]
 8003a20:	b90b      	cbnz	r3, 8003a26 <_fflush_r+0x1a>
 8003a22:	f7ff fa47 	bl	8002eb4 <__sinit>
 8003a26:	f9b4 300c 	ldrsh.w	r3, [r4, #12]
 8003a2a:	2b00      	cmp	r3, #0
 8003a2c:	d0f3      	beq.n	8003a16 <_fflush_r+0xa>
 8003a2e:	6e62      	ldr	r2, [r4, #100]	; 0x64
 8003a30:	07d0      	lsls	r0, r2, #31
 8003a32:	d404      	bmi.n	8003a3e <_fflush_r+0x32>
 8003a34:	0599      	lsls	r1, r3, #22
 8003a36:	d402      	bmi.n	8003a3e <_fflush_r+0x32>
 8003a38:	6da0      	ldr	r0, [r4, #88]	; 0x58
 8003a3a:	f7ff fc3f 	bl	80032bc <__retarget_lock_acquire_recursive>
 8003a3e:	4628      	mov	r0, r5
 8003a40:	4621      	mov	r1, r4
 8003a42:	f7ff ff5d 	bl	8003900 <__sflush_r>
 8003a46:	6e63      	ldr	r3, [r4, #100]	; 0x64
 8003a48:	07da      	lsls	r2, r3, #31
 8003a4a:	4605      	mov	r5, r0
 8003a4c:	d4e4      	bmi.n	8003a18 <_fflush_r+0xc>
 8003a4e:	89a3      	ldrh	r3, [r4, #12]
 8003a50:	059b      	lsls	r3, r3, #22
 8003a52:	d4e1      	bmi.n	8003a18 <_fflush_r+0xc>
 8003a54:	6da0      	ldr	r0, [r4, #88]	; 0x58
 8003a56:	f7ff fc32 	bl	80032be <__retarget_lock_release_recursive>
 8003a5a:	e7dd      	b.n	8003a18 <_fflush_r+0xc>

08003a5c <__swhatbuf_r>:
 8003a5c:	b570      	push	{r4, r5, r6, lr}
 8003a5e:	460c      	mov	r4, r1
 8003a60:	f9b1 100e 	ldrsh.w	r1, [r1, #14]
 8003a64:	2900      	cmp	r1, #0
 8003a66:	b096      	sub	sp, #88	; 0x58
 8003a68:	4615      	mov	r5, r2
 8003a6a:	461e      	mov	r6, r3
 8003a6c:	da0d      	bge.n	8003a8a <__swhatbuf_r+0x2e>
 8003a6e:	89a3      	ldrh	r3, [r4, #12]
 8003a70:	f013 0f80 	tst.w	r3, #128	; 0x80
 8003a74:	f04f 0100 	mov.w	r1, #0
 8003a78:	bf0c      	ite	eq
 8003a7a:	f44f 6380 	moveq.w	r3, #1024	; 0x400
 8003a7e:	2340      	movne	r3, #64	; 0x40
 8003a80:	2000      	movs	r0, #0
 8003a82:	6031      	str	r1, [r6, #0]
 8003a84:	602b      	str	r3, [r5, #0]
 8003a86:	b016      	add	sp, #88	; 0x58
 8003a88:	bd70      	pop	{r4, r5, r6, pc}
 8003a8a:	466a      	mov	r2, sp
 8003a8c:	f000 f848 	bl	8003b20 <_fstat_r>
 8003a90:	2800      	cmp	r0, #0
 8003a92:	dbec      	blt.n	8003a6e <__swhatbuf_r+0x12>
 8003a94:	9901      	ldr	r1, [sp, #4]
 8003a96:	f401 4170 	and.w	r1, r1, #61440	; 0xf000
 8003a9a:	f5a1 5300 	sub.w	r3, r1, #8192	; 0x2000
 8003a9e:	4259      	negs	r1, r3
 8003aa0:	4159      	adcs	r1, r3
 8003aa2:	f44f 6380 	mov.w	r3, #1024	; 0x400
 8003aa6:	e7eb      	b.n	8003a80 <__swhatbuf_r+0x24>

08003aa8 <__smakebuf_r>:
 8003aa8:	898b      	ldrh	r3, [r1, #12]
 8003aaa:	b573      	push	{r0, r1, r4, r5, r6, lr}
 8003aac:	079d      	lsls	r5, r3, #30
 8003aae:	4606      	mov	r6, r0
 8003ab0:	460c      	mov	r4, r1
 8003ab2:	d507      	bpl.n	8003ac4 <__smakebuf_r+0x1c>
 8003ab4:	f104 0347 	add.w	r3, r4, #71	; 0x47
 8003ab8:	6023      	str	r3, [r4, #0]
 8003aba:	6123      	str	r3, [r4, #16]
 8003abc:	2301      	movs	r3, #1
 8003abe:	6163      	str	r3, [r4, #20]
 8003ac0:	b002      	add	sp, #8
 8003ac2:	bd70      	pop	{r4, r5, r6, pc}
 8003ac4:	ab01      	add	r3, sp, #4
 8003ac6:	466a      	mov	r2, sp
 8003ac8:	f7ff ffc8 	bl	8003a5c <__swhatbuf_r>
 8003acc:	9900      	ldr	r1, [sp, #0]
 8003ace:	4605      	mov	r5, r0
 8003ad0:	4630      	mov	r0, r6
 8003ad2:	f7ff f8e9 	bl	8002ca8 <_malloc_r>
 8003ad6:	b948      	cbnz	r0, 8003aec <__smakebuf_r+0x44>
 8003ad8:	f9b4 300c 	ldrsh.w	r3, [r4, #12]
 8003adc:	059a      	lsls	r2, r3, #22
 8003ade:	d4ef      	bmi.n	8003ac0 <__smakebuf_r+0x18>
 8003ae0:	f023 0303 	bic.w	r3, r3, #3
 8003ae4:	f043 0302 	orr.w	r3, r3, #2
 8003ae8:	81a3      	strh	r3, [r4, #12]
 8003aea:	e7e3      	b.n	8003ab4 <__smakebuf_r+0xc>
 8003aec:	89a3      	ldrh	r3, [r4, #12]
 8003aee:	6020      	str	r0, [r4, #0]
 8003af0:	f043 0380 	orr.w	r3, r3, #128	; 0x80
 8003af4:	81a3      	strh	r3, [r4, #12]
 8003af6:	9b00      	ldr	r3, [sp, #0]
 8003af8:	6163      	str	r3, [r4, #20]
 8003afa:	9b01      	ldr	r3, [sp, #4]
 8003afc:	6120      	str	r0, [r4, #16]
 8003afe:	b15b      	cbz	r3, 8003b18 <__smakebuf_r+0x70>
 8003b00:	f9b4 100e 	ldrsh.w	r1, [r4, #14]
 8003b04:	4630      	mov	r0, r6
 8003b06:	f000 f81d 	bl	8003b44 <_isatty_r>
 8003b0a:	b128      	cbz	r0, 8003b18 <__smakebuf_r+0x70>
 8003b0c:	89a3      	ldrh	r3, [r4, #12]
 8003b0e:	f023 0303 	bic.w	r3, r3, #3
 8003b12:	f043 0301 	orr.w	r3, r3, #1
 8003b16:	81a3      	strh	r3, [r4, #12]
 8003b18:	89a3      	ldrh	r3, [r4, #12]
 8003b1a:	431d      	orrs	r5, r3
 8003b1c:	81a5      	strh	r5, [r4, #12]
 8003b1e:	e7cf      	b.n	8003ac0 <__smakebuf_r+0x18>

08003b20 <_fstat_r>:
 8003b20:	b538      	push	{r3, r4, r5, lr}
 8003b22:	4d07      	ldr	r5, [pc, #28]	; (8003b40 <_fstat_r+0x20>)
 8003b24:	2300      	movs	r3, #0
 8003b26:	4604      	mov	r4, r0
 8003b28:	4608      	mov	r0, r1
 8003b2a:	4611      	mov	r1, r2
 8003b2c:	602b      	str	r3, [r5, #0]
 8003b2e:	f7fd fa9e 	bl	800106e <_fstat>
 8003b32:	1c43      	adds	r3, r0, #1
 8003b34:	d102      	bne.n	8003b3c <_fstat_r+0x1c>
 8003b36:	682b      	ldr	r3, [r5, #0]
 8003b38:	b103      	cbz	r3, 8003b3c <_fstat_r+0x1c>
 8003b3a:	6023      	str	r3, [r4, #0]
 8003b3c:	bd38      	pop	{r3, r4, r5, pc}
 8003b3e:	bf00      	nop
 8003b40:	200004dc 	.word	0x200004dc

08003b44 <_isatty_r>:
 8003b44:	b538      	push	{r3, r4, r5, lr}
 8003b46:	4d06      	ldr	r5, [pc, #24]	; (8003b60 <_isatty_r+0x1c>)
 8003b48:	2300      	movs	r3, #0
 8003b4a:	4604      	mov	r4, r0
 8003b4c:	4608      	mov	r0, r1
 8003b4e:	602b      	str	r3, [r5, #0]
 8003b50:	f7fd fa92 	bl	8001078 <_isatty>
 8003b54:	1c43      	adds	r3, r0, #1
 8003b56:	d102      	bne.n	8003b5e <_isatty_r+0x1a>
 8003b58:	682b      	ldr	r3, [r5, #0]
 8003b5a:	b103      	cbz	r3, 8003b5e <_isatty_r+0x1a>
 8003b5c:	6023      	str	r3, [r4, #0]
 8003b5e:	bd38      	pop	{r3, r4, r5, pc}
 8003b60:	200004dc 	.word	0x200004dc

08003b64 <_init>:
 8003b64:	b5f8      	push	{r3, r4, r5, r6, r7, lr}
 8003b66:	bf00      	nop
 8003b68:	bcf8      	pop	{r3, r4, r5, r6, r7}
 8003b6a:	bc08      	pop	{r3}
 8003b6c:	469e      	mov	lr, r3
 8003b6e:	4770      	bx	lr

08003b70 <_fini>:
 8003b70:	b5f8      	push	{r3, r4, r5, r6, r7, lr}
 8003b72:	bf00      	nop
 8003b74:	bcf8      	pop	{r3, r4, r5, r6, r7}
 8003b76:	bc08      	pop	{r3}
 8003b78:	469e      	mov	lr, r3
 8003b7a:	4770      	bx	lr
